
 Start         Length     Name                   Class
 0000:00000000 000800000H ROM                    CODE


  Address         Publics by Value

 0000:00000000       Reset
 0000:000013F4       gDebuggerBits
 0000:000013FC       gNewtConfig
 0000:000087A0       Rucardpositionalerttext
 0000:00019188       TDotPrinterDriver::Delete((void))
 0000:000191B0       TPSPrinterDriver::Delete((void))
 0000:0001A81C       BiGrammarDestroy
 0000:0001B968       CharValidParams
 0000:00024E28       modemRspParseTable
 0000:00025630       exFrames
 0000:00025638       exBadType
 0000:000256A4       OrFixedRect
 0000:00025748       XYFixedScaleFixedRect
 0000:00025F80       TFlashBlock::SetInfo((SReservedBlockLogEntry *))
 0000:00026260       ASCIIString(RefVar const &)
 0000:000262D0       StrokeJoin
 0000:00026434       exOutOfStack
 0000:0002644C       SLJoinFragments
 0000:00026664       TObjectHeap::AllocateFrame((void))
 0000:000266D8       GeoContextPenalty
 0000:00027164       GeoContextAux2
 0000:000281A4       LEquiesant
 0000:00028908       ListCreate
 0000:0002892C       ListDestroy
 0000:00028A58       ListAddEntry
 0000:00028BE8       ListRemoveEntry
 0000:00028FA0       NetPatternLookup
 0000:000290C8       NetPatternizerImageInitFromBP
 0000:00029158       NetPatternImageCreate
 0000:0002972C       NetPatternMultiCreate
 0000:0002A044       NetPatternizerScalarInitFromBP
 0000:0002A1E8       NetPatternAspectNormSLToPat
 0000:0002A2CC       NetPatternizerStrokeInitFromBP
 0000:0002A328       NetPatternStrokeCreate
 0000:0002A420       NetPatternStrokePUDSLToPat
 0000:0002AD1C       NetPatternizerCreateForGrid
 0000:0002AE78       NetPatternCreate
 0000:0002BDA8       a__1
 0000:0002BDC0       a_
 0000:0002BDCC       a_G
 0000:0002E100       RenderAAFlush
 0000:0002E1B4       AAtables
 0000:0002E300       RenderAACreate
 0000:0002E624       RenderLine
 0000:0002E95C       RosICBX
 0000:0002ED58       RosettaClassifyCleanup
 0000:0002EF20       RosettaClassifyAnalyze
 0000:0002F244       RosettaClassify
 0000:0002F388       BiGrammarModifyContext
 0000:0002F908       exRosetta
 0000:0002FA8C       RosettaQuiesce
 0000:0002FABC       RSfRcl
 0000:0002FB08       rosCI
 0000:0002FB10       RosettaSleep
 0000:0002FC94       SearchCheckHashHit
 0000:00030A78       SearchSegwordRememberNBest
 0000:00031414       SearchDeallocateGlobals
 0000:00031BEC       GetBestPath
 0000:00032270       SegmentQuiesce
 0000:00032B4C       SegmentSetStrokes
 0000:00032BF0       SegmentMultiStrokeMinDistance
 0000:00032DFC       SegmentMultiStrokeMinDistBoundX
 0000:0003350C       SegmentStrokeData
 0000:000337FC       SegmentWord
 0000:00033948       SegmentWordBkVt
 0000:00035624       SegmentAspect
 0000:00035754       SegmentChars
 0000:00036920       SLDrawAAAt
 0000:00036994       StrokeCentroid
 0000:00036A80       StrokePreprocess
 0000:00036B90       StrokeSmooth
 0000:00036EC4       SLCreate
 0000:00037008       SLDestroy
 0000:000370C0       SLCalcBounds
 0000:00037164       StrokeCreate
 0000:00037534       StrokeDuplicate
 0000:00037688       _mul64
 0000:000376CC       StrokeCalcBounds
 0000:000393B0       CheckHeap
 0000:00039448       VetDynBlock
 0000:0003ADA8       WordRecogAllocate
 0000:0003B424       WordRecogAddStroke2
 0000:0003C1C8       WordRecogNetSetInputs
 0000:0003D074       WordTailSprint
 0000:0003D2CC       WordTailBlockAllocate
 0000:0003D490       WordTailDeallocateGlobals
 0000:0003D514       WordListFreeAll
 0000:0003D6CC       TADSPEndpoint::Open((ulong))
 0000:0003D810       myCalText33
 0000:0003D848       EnableDisableAndClearIRQ
 0000:0003D8E0       TTask::TTask((void))
 0000:0003D91C       UCompMul
 0000:0003D964       TICache::~TICache((void))
 0000:0003DA74       ICacheClearFrame(long)
 0000:0003DABC       TADSPEndpoint::nBind((TOptionArray *,ulong,uchar))
 0000:0003DC48       TADSPEndpoint::nListen((TOptionArray *,CBufferSegment *,long *,ulong,uchar))
 0000:0003DE20       TNewtEventHandler::TNewtEventHandler((void))
 0000:0003DE5C       TADSPEndpoint::nAccept((TEndpoint *,TOptionArray *,CBufferSegment *,long,ulong,uchar))
 0000:0003DF70       TADSPEndpoint::nConnect((TOptionArray *,CBufferSegment *,long *,ulong,uchar))
 0000:0003E570       nSnd__13TADSPEndpointFPUcPlUlT3UcP12TOptionArray
 0000:0003E7E8       TADSPEndpoint::nRcv((uchar *,long *,long,ulong *,ulong,uchar,TOptionArray *))
 0000:0003EDAC       TADSPEndpoint::PrepOpenConnection((TOpenConnection *,TOptionArray *,long))
 0000:0003EEAC       TADSPEndpoint::OpenConnectionComplete((TOpenConnectionReply *))
 0000:0003EFF8       TADSPEndpoint::CloseConnectionComplete((TOpenConnectionReply *))
 0000:0003F234       TADSPEndpointChunk::~TADSPEndpointChunk((void))
 0000:0003F390       TADSPEndpointChunk::Init((TADSPEndpoint *,TEndpointEventHandler *,ulong))
 0000:0003F40C       TADSPEndpointChunk::InitBuffers((TOptionArray *))
 0000:0003F668       TADSPEndpointChunk::RegisterNBPName((ushort *))
 0000:0003F700       HandleEvent__13TADSPEndpointFUlP7TAEventT1
 0000:0003F74C       TADSPEndpointChunk::DeRegisterNBPName((void))
 0000:0003FA28       TADSPEndpointChunk::Send((TADSPSendRequest *,ulong))
 0000:0003FAD8       TADSPEndpointChunk::Recv((TADSPRecvRequest *,ulong))
 0000:0003FB90       TADSPEndpointChunk::RecvComplete((TADSPRecvRequest *,long))
 0000:0003FD48       TADSPEndpointChunk::SendComplete((TADSPSendRequest *,long))
 0000:0003FFA0       TObjectReader::ReadUnicodeCharacter((void))
 0000:0003FFF8       TADSPEndpoint::HandleComplete((TUMsgToken *,ulong *,TAEvent *))
 0000:0004048C       ADSPCallService__18TADSPEndpointChunkFP7TAEventlT1T2UlT5Uc
 0000:00040580       UserVisibleChar(ushort)
 0000:0004062C       SetFreeChain
 0000:00040864       IsCommandKeystroke(ushort,ulong)
 0000:000408A0       TAEventComparer::TestItem(const(void const *))
 0000:000408F4       TAEHandlerIterator::TAEHandlerIterator((TAEventHandler *))
 0000:00040944       TAEHandlerIterator::Advance((void))
 0000:00040970       TAEHandlerIterator::Reset((void))
 0000:00040A68       Init__14TAEventHandlerFUlT1
 0000:000410F4       TObjectPtr::~TObjectPtr((void))
 0000:00041138       TObjectPtr::__as((long))
 0000:00041368       TAEHandlerComparer::TestItem(const(void const *))
 0000:000413C8       TNewInternalFlash::CheckFor2LaneFlash((ulong,SFlashChipInformation &,TFlashDriver *&,eMemoryLane))
 0000:00041724       TNewInternalFlash::CheckFor4LaneFlash((ulong,SFlashChipInformation &,TFlashDriver *&))
 0000:000418A4       __eq__FRC21SFlashChipInformationT1
 0000:00041994       Write__10TATASimpleFPUcUlT2UcT4
 0000:000419C8       TBCWakeUpInker(ulong)
 0000:00041D20       TATASimple::DoATALBACommand((TATALBACommandBlock *))
 0000:00042408       TATASimple::SwapDriveInfoBytes((TATADriveBasicInfo *))
 0000:00042480       TATASimple::WaitFor((uchar,TATARegisters *))
 0000:0004257C       TATASimple::Initialize((TCardSocket *,TCardPCMCIA *,ulong))
 0000:00042880       OpenResponder__13TATPInterfaceFPUcUsUcT3UlT3
 0000:000428CC       CloseResponder__13TATPInterfaceFUcT1
 0000:00042970       SendRequestAsync__13TATPInterfaceFP11TAsyncEventUcP8TAddressUlT4N22N24T2
 0000:0004314C       GetIndirectBlockSize
 0000:00043454       TTransaction::Complete((long))
 0000:00043480       TXView::DrawDragData((TRect const &))
 0000:00043504       TTransaction::CopyResponse((uchar,ulong,uchar *))
 0000:00043714       TTransactionManager::CreateNewTransaction((TCompletion &,TSendRequestMessage *))
 0000:00043CE0       TTransactionManager::TransactionRequestAgain((TSendRequestAgainMessage *,TATP *))
 0000:00043FB4       TATP::DoCommand((TUMsgToken *,ulong *,TAppleTalkMessage *))
 0000:00044114       TATP::Read((TUMsgToken *,TAppleTalkMessage *))
 0000:000442D0       TATP::Cancel((TAppleTalkMessage *))
 0000:00044414       Copy__21TTransactionResponsesFUcUlPUcT1
 0000:000444F4       TAddress::TAddress((uchar))
 0000:000447EC       ClearAttr(ulong)
 0000:000449EC       ClearRP(ulong)
 0000:00044A30       PutRP__FUlT1
 0000:00044AC8       AE_Parms
 0000:00044BBC       GetSymbol(ulong)
 0000:00044D54       FixupPointers(ulong,Operation)
 0000:00044F28       Fpow
 0000:00044F80       FindInsertionPoint(ushort **,ulong *)
 0000:00045404       AEnum_AddWord(AirusAParmBlock *)
 0000:00046F90       GetAttr(ulong)
 0000:00047000       TScreenDriver::Delete((void))
 0000:000476EC       AL_Verify(AirusAParmBlock *)
 0000:000478FC       AL_FilterString(char *)
 0000:00047974       AL_NextSet9(AirusAParmBlock *)
 0000:00047E1C       DeletePrefix
 0000:00047EBC       RemoveInk(TEditView *,TUnit *)
 0000:0004816C       VerifyCharacter__FPP15AirusAParmBlockPUcPPUcPPUlT4UcT3
 0000:000486A0       VerifyWord__FPP15AirusAParmBlockPUcPPUcPPUlT4UcT3
 0000:000488C8       FirstCompletion
 0000:00048A60       NextCompletion
 0000:00048BB8       AttributeLength
 0000:00048FFC       BuildDictionaryFromPtr
 0000:00049030       Insert__7TICacheFlN31
 0000:0004908C       DisposDictionary
 0000:000490D4       A8_PrefixCompletions(DictWalkBlock *)
 0000:00049230       TAirusIterator::VerifyNextChar((void))
 0000:00049380       TAirusIterator::PreviousWord((void))
 0000:0004949C       TAirusIterator::VerifyPrevChar((void))
 0000:00049764       TAirusIterator::BuildStateUpToPrefix((uchar *,ulong))
 0000:00049880       SortOrder__FUcT1
 0000:000498D4       TAirusIterator::GetNextChars((void))
 0000:00049A84       A8_WalkNextChars(DictWalkBlock *,ulong)
 0000:00049B88       TAirusIterator::PushState((ulong))
 0000:00049C54       TObjectHeap::AllocateMap((RefVar const &,long))
 0000:00049CC8       WalkDictionary__FPP15AirusAParmBlockPUcPFPUcUlUcT2Pv_UcPv
 0000:00049D60       TAirusIterator::TAirusIterator((AirusAParmBlock **))
 0000:00049E8C       Reset__14TAirusIteratorFPUcUcT2
 0000:00049F24       TAirusIterator::ThisWord((uchar *,ulong &,uchar &))
 0000:0004A194       TAlertDialog::RemoveAlert((void))
 0000:0004A2A0       FlushDataCache__11TFlashRangeCFUlT1
 0000:0004A31C       DequeueTestCommand__17TTestCommandQueueFPUlPcT2
 0000:0004A368       TAlertDialog::DrawAlert((void))
 0000:0004A794       DrawDLine__FsN31
 0000:0004AA04       FrameDRect(Rect *,TDMode)
 0000:0004ADC8       AlertGetPoint(long *)
 0000:0004AE54       TOSErrorAlertDialog::TOSErrorAlertDialog((void))
 0000:0004B19C       TErasePersistentDataAlert::TErasePersistentDataAlert((void))
 0000:0004B618       TAlertItem::DrawText((uchar))
 0000:0004BA48       TAlertDialog::TAlertDialog((void))
 0000:0004BAA8       FrPaths(paths **)
 0000:0004BAFC       TAlertGlyph::TAlertGlyph((void))
 0000:0004BB80       TAlertGlyph::InitGlyph((RefVar const &,long))
 0000:0004BE6C       TAlertGlyph::GetAlertGlyph((long,PixelMap *))
 0000:0004BFD4       TXView::Copy((void))
 0000:0004C08C       _sys_msg_via_stderr
 0000:0004C100       DataPtr::__as((long))
 0000:0004C1B8       __stderr
 0000:0004C20C       TAlertEventHandler::Init((TAlertManager *))
 0000:0004C260       TAlertEventHandler::AEHandlerProc((TUMsgToken *,ulong *,TAEvent *))
 0000:0004C32C       TAlertEventHandler::IdleProc((TUMsgToken *,ulong *,TAEvent *))
 0000:0004C484       TAlertManager::MainConstructor((void))
 0000:0004C5E8       TAppWorldState::NestedEventLoop((void))
 0000:0004C6D8       AllocateRefHandle(long)
 0000:0004C768       TAppWorld::MainConstructor((void))
 0000:0004C874       TAppWorld::MainDestructor((void))
 0000:0004CA10       TAppWorld::ForkConstructor((TForkWorld *))
 0000:0004CA8C       TEphemeralTracker::TEphemeralTracker((void))
 0000:0004CB28       SendRPC(TAEventHandler *,TUPort *,TUAsyncMessage *,void *,ulong,ulong,ulong,ulong,TTime *,ulong,uchar)
 0000:0004CCAC       AEGetCollectedEvent__9TAppWorldFUlP10TUMsgTokenPUlPP7TAEventT3
 0000:0004CE7C       TAppWorld::AEReplyImmed((void))
 0000:0004CF18       TAppWorld::AEDispatch((ulong,TUMsgToken *,ulong *,TAEvent *))
 0000:0004D094       TAppWorld::AEventLoop((TAppWorldState *))
 0000:0004D200       CallPaths(uchar,paths **)
 0000:0004D23C       TAppWorld::NestedEventLoop((void))
 0000:0004D320       gHeap
 0000:0004D3B4       RegisterNetworkROMProtocols(void)
 0000:0004D474       TAppleTalkStack::DoCommand((TUMsgToken *,ulong *,TAppleTalkMessage *))
 0000:0004D4E8       RemoveFreeBlock
 0000:0004D54C       TAppleTalkStack::AttachLink((TAppleTalkMessage *))
 0000:0004D678       MoveFreeBlock
 0000:0004D6EC       TAppleTalkStack::ATLKOpen((TAppleTalkMessage *))
 0000:0004D8F0       SetRect__FP4RectlN32
 0000:0004DA50       TAppleTalkWorld::MainDestructor((void))
 0000:0004DAEC       TAppleTalkWorld::NewMessage((void))
 0000:0004DBDC       TATAsyncMsg::Init((TUPort *))
 0000:0004DCD8       TStoreWrapper::~TStoreWrapper((void))
 0000:0004DDCC       myCalText15
 0000:0004DE60       CMGetOptionsForLink(TOptionArray *,ulong)
 0000:0004DFC0       SetOption_AppleTalk_Service(TOptionArray *)
 0000:0004E044       CMGetOptionsForAppleTalkADSP(TOptionArray *)
 0000:0004E0B8       TAppleTalkService::Start((TOptionArray *,ulong,TServiceInfo *))
 0000:0004E6CC       PAppleTalkStack::NBPLookupNamesClose((void))
 0000:0004E700       PAppleTalkStack::NBPRegisterName((uchar,uchar *))
 0000:0004E75C       PAppleTalkStack::NBPUnRegisterName((uchar *))
 0000:0004E7B0       PAppleTalkStack::ATPOpenSocket((uchar))
 0000:0004E874       PAppleTalkStack::ATPCloseSocket((void))
 0000:0004E8D0       ATPSendRequest__15PAppleTalkStackFP8TAddressP13TMemoryObjectT2UcN24UlT7T4
 0000:0004E99C       PAppleTalkStack::ATPSendRequestResponses((ulong &))
 0000:0004E9DC       PAppleTalkStack::ATPSendRequestGetResult((uchar))
 0000:0004EA1C       PAppleTalkStack::ATPSendRequestCancel((void))
 0000:0004EA7C       DDPOpenSocket__15PAppleTalkStackFPUcUlN22
 0000:0004EBC0       PAppleTalkStack::DDPReceive((CBufferList *))
 0000:0004EC38       PAppleTalkStack::Delete((void))
 0000:0004EEAC       NBPLookupNames__15PAppleTalkStackFPUcUlN22
 0000:0004F0AC       AppleTalkPort(TUPort *)
 0000:0004F364       CloseAppleTalk(ulong,uchar)
 0000:0004F5C4       MakeUndoCommand__FRC6RefVarN21
 0000:0004FFB8       CallPoly(uchar,Polygon **)
 0000:000500B0       TApplication::PostUndoCommand((ulong,TResponder *,long))
 0000:00050140       TApplication::DerivedFrom(const(long))
 0000:00050174       SoupGetFlags
 0000:0005028C       MakeRunScriptCommand__FRC6RefVarN21
 0000:000503A4       SafeExceptionNotify(Exception *)
 0000:0005040C       TryGetAreasHit(TUnit *,TArray *)
 0000:00050534       GetAreasHit(TUnit *,TArray *)
 0000:000505C0       ReclassifyCharacter__FP11TUnitPubliclT2
 0000:00050860       BuildRecConfig(TView *,ulong)
 0000:00050994       InkTextEnabled(TView *,ulong,RefVar const &)
 0000:000509EC       BuildRecConfigForDeferred(TView *,ulong)
 0000:00051130       PrepRecConfig
 0000:00051150       FBuildRecConfig
 0000:000511C8       MakeArea(TController *,TView *,ulong,RefVar const &)
 0000:00051314       ToObject(WordBaseInfo *)
 0000:000513B0       FromObject(RefVar const &,WordBaseInfo *)
 0000:00051440       ToObject(RecGridInfo *)
 0000:0005150C       FromObject(RefVar const &,RecGridInfo *)
 0000:000517BC       PolygonWordHandler(TUnit *,ulong)
 0000:00051A44       ParagraphViewWordHandler(TUnit *,ulong)
 0000:00051EA0       GetElapsedTicks(ulong)
 0000:00051F44       HandleBulkStrokes__FRC6RefVarT1
 0000:00052024       BulkUnitHandler(TUnit *,ulong)
 0000:000525F0       FindMatchingArea(TView *,ulong)
 0000:00052830       TArithmeticCompressor::Flush((void))
 0000:00052CA8       FIsSubexception
 0000:00052D5C       TArithmeticDecompressor::Delete((void))
 0000:00052F30       CallRect(uchar,Rect *)
 0000:00052F6C       TArithmeticDecompressor::ReadChunk((void *,long *,uchar *))
 0000:00053544       TArithmeticDecompressor::DiscardBits((void))
 0000:000538EC       TArithmeticCompressor::WriteChunk((void *,long))
 0000:00053AEC       TArithmeticCompressor::PushOutBits((void))
 0000:00053CC0       TFlashRange::EarlyPrepareForReadingArray((void))
 0000:00053CCC       xFracCos(long)
 0000:00053D70       xTabInit(void)
 0000:00053DA0       xTabOn(void)
 0000:00053F74       _ttywrch
 0000:00053FB8       TWRecognizer::Delete((void))
 0000:00053FDC       FrameSlotPosition__FlT1
 0000:00054038       Init__14CArrayIteratorFP13CDynamicArraylT2Uc
 0000:00054424       CArrayIterator::CArrayIterator((CDynamicArray *,uchar))
 0000:0005447C       CArrayIterator::CArrayIterator((CDynamicArray *))
 0000:00054590       TAsyncDebugLink::WriteByte((uchar))
 0000:000545D4       TAsyncDebugLink::RxBFInterrupt((void))
 0000:00054640       Install__15TAsyncDebugLinkFUlT1PvPFPv_l
 0000:000547F0       FGetCardInfo
 0000:00054824       TAsyncDebugLink::WriteDebugFrame((uchar *,long))
 0000:00054904       TAsyncDebugLink::ReadDebugFrame((uchar *,long,long *,ulong))
 0000:00054BBC       CallRgn(uchar,Region **)
 0000:00054BF8       TAsyncEvent::Free((void))
 0000:00054C38       TAsyncEvent::Init((ulong,TAEventHandler *))
 0000:00054E88       Fscalb
 0000:00054EF4       TAsyncSerTool::GetStats((TCMOSerialIOStats *))
 0000:00054F38       TAsyncSerTool::UpdateStats((ulong))
 0000:00055038       TAsyncSerTool::FillOutputBuffer((void))
 0000:00055168       TAsyncSerTool::DoInput((void))
 0000:000554CC       TAsyncSerTool::FlushInputBytes((void))
 0000:000554FC       FillRect(Rect *,PixelMap **)
 0000:00055A04       TAsyncSerTool::SetOutputFlowControl((TCMOOutputFlowControlParms *))
 0000:00055B78       TView::DragFeedback((TDragInfo const &,TPoint const &,uchar))
 0000:00055BC0       RectRgn(Region **,Rect *)
 0000:00055C34       TAsyncSerTool::IHReqHandler((void))
 0000:00055D18       TAsyncSerTool::ContinueOutputST((uchar))
 0000:00055D48       TAsyncSerTool::StartOutputST((void))
 0000:00055D90       TCodecChannel::GetNodeBuffer((ChannelNode *,void **))
 0000:00055E2C       TAsyncSerTool::ContinueOutputIH((uchar))
 0000:00055ED0       TAsyncSerTool::DoBreakFraming((void))
 0000:00055F64       TAsyncSerTool::GetNextOutChar((uchar *))
 0000:00056064       TAsyncSerTool::GetMoreOutChars((uchar *))
 0000:000560A4       TAsyncSerTool::HandleCharIn((uchar,ulong))
 0000:00056230       TAsyncSerTool::TxBEmptyInt((void))
 0000:000562BC       TAsyncSerTool::ExtStatusInt((void))
 0000:0005656C       TAsyncSerTool::RxCAvailInt((void))
 0000:000565B4       TAsyncSerTool::RxCSpecialInt((void))
 0000:00056610       TAsyncSerTool::EmptyInFIFO((void))
 0000:00056698       TAsyncSerTool::RxMultiByteInterrupt((ulong))
 0000:000568D8       TAsyncDebugLink::PowerCycle((uchar))
 0000:00056A74       TAsyncSerTool::TurnOffSerChip((void))
 0000:00056AB8       TAsyncSerTool::AllocateBuffers((void))
 0000:00056C70       SoupGetIndexesModTime
 0000:00056DEC       BatteryInitialize(void)
 0000:00056ECC       SendSniffCommand(uchar)
 0000:000570D8       TXFrames::PointToFrame(const(TXLongPoint const &,uchar *))
 0000:000574E8       TBeamer::ReceiveSetup((void))
 0000:000575D0       TBeamer::Receive((void))
 0000:00057898       TBeamer::OpenPipe((uchar))
 0000:000579E8       TSoundCodec::Delete((void))
 0000:00057A04       TXLongRect::IsPointInside(const(TXLongPoint const &))
 0000:00057AD8       GetStoreWrapper(RefVar const &)
 0000:00058290       TBeamer::ReceiveNewton((void))
 0000:00058A38       ExpandIRCodeWord(IRCodeWord *,int)
 0000:00058BFC       OpenIREndpointForBitBang(void)
 0000:00058CEC       TEventCollector::Delete((void))
 0000:00058D08       FOpenRemote
 0000:00058DB0       Fhypot
 0000:000591FC       ZapCancel
 0000:00059228       Status__15TBeamerCallbackFlT1
 0000:000592B8       SoupGetInfoModTime
 0000:00059330       TBits::Draw((TRect const &,long,Region **))
 0000:00059604       DragBits::Constructor((TView *,TRect const *,uchar))
 0000:00059888       DragBits::DragBits((TView *,TRect const *,uchar))
 0000:000598EC       strtok
 0000:00059958       DragBits::DragBits((void))
 0000:000599A4       PlaySound__FRC6RefVarT1
 0000:00059AC4       TAnimate::~TAnimate((void))
 0000:0005A380       PostSetup__8TAnimateFRC5TRectN21
 0000:0005B1F8       CrumplePt__FlN21P5Point
 0000:0005B4A4       CrumpleSprite__8TAnimateFP5TRectT1
 0000:0005B9A0       TBits::Constructor((TRect const &))
 0000:0005B9F4       TAnimate::CrumpleEffect((void))
 0000:0005C324       BasicBusControlRegInit
 0000:0005C524       PInTranslator::Delete((void))
 0000:0005C54C       TSerialChip::RemoveChipHandler((void *))
 0000:0005C584       POutTranslator::Delete((void))
 0000:0005C5A4       PFrameSource::Delete((void))
 0000:0005C5E8       InitCGlobals
 0000:0005C83C       DiagHook
 0000:0005C8A8       ROMBanksAreSplit
 0000:0005C8DC       MakePrimaryMMUTable
 0000:0005CCDC       CBufferList::Hide((long,int))
 0000:0005CE38       CBufferList::Seek((long,int))
 0000:0005D33C       CBufferList::RemoveAt((long))
 0000:0005D3FC       CBufferList::RemoveLast((void))
 0000:0005D688       StoreUnlock
 0000:0005D6C0       CBufferList::NextSegment((void))
 0000:0005DBDC       TFunctionState::EmitThree((uchar,long))
 0000:0005DD80       StoreGetSignature
 0000:0005DED4       Init__11CBufferPipeFlT1
 0000:0005E06C       CBufferPipe::ReadChunk((void *,long &,uchar &))
 0000:0005E230       CBufferPipe::WriteChunk((void *,long,uchar))
 0000:0005E70C       CBufferSegment::MakeShared((ulong))
 0000:0005E768       TCachedReadStore::TCachedReadStore((void))
 0000:0005E86C       round
 0000:0005EA44       atof
 0000:0005EB78       TAsyncServiceMessage::Init((TCMService *))
 0000:0005EBE0       TInterpreter::TraceFreqCall((long))
 0000:0005ED8C       TCPReadMessage::Init((TEndpointPipe *,ulong))
 0000:0005EE38       TCPReadMessage::ReceiveMessage((void))
 0000:0005EEB0       TCPReadMessage::ReadTuple((TCPTuple *,uchar))
 0000:0005F1A8       TCPNewtonIdTuple::TCPNewtonIdTuple((void))
 0000:0005F298       __ct__26TCPServiceInfoRequestTupleFUlT1
 0000:0005F324       __ct__22TCPRequestServiceTupleFUlT1
 0000:0005F36C       TCPChangeSpeedRequestTuple::TCPChangeSpeedRequestTuple((ulong))
 0000:0005F3AC       TCRC16::Reset((void))
 0000:0005F3B8       TCRC16::ComputeCRC((uchar))
 0000:0005F4AC       TCRC16::ComputeCRC((uchar *,ulong))
 0000:0005F50C       TCRC16::Get((void))
 0000:0005F520       TCRelocationGenerator::TCRelocationGenerator((void))
 0000:0005F7A0       TSimpleCRelocator::Init((TStore *,ulong,long *))
 0000:0005FA10       TCardATALoader::LoadATAPackages((TCardSocket *,TCardPCMCIA *,TATABootParamBlock *,void *,ulong))
 0000:00060074       LoadDriverPackage__14TCardATALoaderFP4TATAP11TCardSocketUlT3PPUcPUl
 0000:0006015C       TCardATALoader::RemoveATAPackages((TATABootParamBlock *,void *,ulong))
 0000:00060308       TATAPartitionInfo::Clear((void))
 0000:000603A0       TCardAlertDialog::TCardAlertDialog((void))
 0000:00060790       SetCardReinsertReason(ushort const *,uchar)
 0000:00060850       TCardAsyncMsg::TCardAsyncMsg((void))
 0000:000608B0       SendRPC__13TCardAsyncMsgFP6TUPortT1UlP5TTime
 0000:0006099C       TXKeyCommand::UndoHilite((uchar))
 0000:00060A10       TNewCardAsyncMsg::Init((void))
 0000:00061140       TCardCISIterator::GetPackage((TCardPackage *,uchar))
 0000:00061280       TPCMCIA20Parser::TPCMCIA20Parser((void))
 0000:00061440       ChecksumOK__15TPCMCIA20ParserFUlPUcN21
 0000:000626C8       TMathLineView::RealDraw((TRect &))
 0000:00062AD0       TPCMCIA20Parser::CisTpl_Vendor_Unique((uchar *))
 0000:00063290       ValidateCIS__15TPCMCIA20ParserFPUcT1P11TCardPCMCIAP11TCardSocket
 0000:00063400       ParsePCCardCIS__15TPCMCIA20ParserFPUcT1P11TCardPCMCIAP11TCardSocket
 0000:00063528       TPCMCIA20Parser::ParsePCCardCIS((TCardPCMCIA *,TCardSocket *))
 0000:00063594       TPCMCIA20Parser::GetShort((uchar *&))
 0000:000635C8       TPCMCIA20Parser::GetWord((uchar *&))
 0000:00063604       GetTuple__15TPCMCIA20ParserFPUcT1Uc
 0000:00063774       TCardDomains::CardFaultMonProc((long,void *))
 0000:00063800       exBusError
 0000:000639B0       TCardDomains::Init((void))
 0000:00063D38       TCardSystemEventHandler::PowerOn((TAEvent *))
 0000:00063DC8       TCardSystemEventHandler::ReplyPowerOff((void))
 0000:00063E08       TCardSystemEventHandler::AECompletionProc((TUMsgToken *,ulong *,TAEvent *))
 0000:00063EC0       TStoreHashTable::Abort((void))
 0000:00063FE0       TCardEventHandler::AEHandlerProc((TUMsgToken *,ulong *,TAEvent *))
 0000:00064018       TCardEventHandler::AECompletionProc((TUMsgToken *,ulong *,TAEvent *))
 0000:00064048       TCardEventHandler::IdleProc((TUMsgToken *,ulong *,TAEvent *))
 0000:0006412C       TCardProcessorEventHandler::AECompletionProc((TUMsgToken *,ulong *,TAEvent *))
 0000:000641BC       CardAttrMemReadByte(void *)
 0000:00064604       TEphemeralTracker::LockEphemerals((void))
 0000:0006502C       UnionSoupAdd
 0000:00065088       PowerOnDeviceCheck(uchar)
 0000:000652C0       TStoreWritePipe::Complete((void))
 0000:00065610       TCardMessage::TCardMessage((void))
 0000:000656D0       MessageStuff__12TCardMessageFUlN21
 0000:00065710       SetString(char *&,char const *)
 0000:00065760       TCardDevice::TCardDevice((void))
 0000:00065884       TCardPackage::TCardPackage((void))
 0000:00065964       SetStringsBlock(char *&,char const *,ulong const)
 0000:00065A90       Fcopysign
 0000:00065AE4       GetClock
 0000:000660C8       EveryOtherWeekString(long,ushort *)
 0000:00066238       TCardPartHandler::Install((PartId const &,SourceType,PartInfo *))
 0000:00066408       TCardPipe::ReadChunk((void *,long &,uchar &))
 0000:00066678       NewClipboard__10TClipboardSFRC9TDragInfoP5TViewRC5TRectPC6TPoint
 0000:0006688C       TCardProcessor::ForkInit((TForkWorld *))
 0000:00066940       SyncErase__11TFlashRangeFUlT1
 0000:000669C4       TCardServer::SendNewCardMessage((TUPort *,ulong,TCardHandler *,ulong *))
 0000:00066BF8       SendSelfMessage__11TCardServerFUlN31P5TTime
 0000:00066D28       TCardServer::AddCardHandler((ulong,TClassInfo const *))
 0000:00066DFC       TCardServer::RemoveCardHandler((ulong,TClassInfo const *))
 0000:00066E98       TCardServer::ActivateCardHandler((TCardHandler *,TCardSocket *,TCardSocketState *))
 0000:00067078       TCardServer::DeactivateCardHandler((TCardHandler *,TCardSocket *,TCardSocketState *))
 0000:00067404       TCardServer::CheckCardStatus((ulong))
 0000:000674A8       TSoundServer::StopAll((void))
 0000:000675A8       TCardServer::SetPCMCIAWaitStates((TCardSocket *,TCardPCMCIA *))
 0000:00067D0C       InitOval__FP4RectP7OvalReclT3
 0000:00067EB4       ThrowExInterpreterWithSymbol(long,RefVar const &)
 0000:0006805C       TCardServer::DoCardRecognition((ulong,TCardSocket *,TCardSocketState *))
 0000:0006844C       TADC::ShutDown((void))
 0000:00069860       DropMove__9TEditViewFRC6RefVarRC6TPointT2Uc
 0000:000699B8       StringKeyCompare__10TSoupIndexFRC4SKeyT1
 0000:00069C2C       TCardServer::MainConstructor((void))
 0000:0006A130       TCardServer::MainDestructor((void))
 0000:0006A89C       PFrameSink::Delete((void))
 0000:0006A940       _eq64
 0000:0006AA9C       SetBoundsRect(RefVar const &,TRect const &)
 0000:0006AB24       LongToPipe(CPipe &,long)
 0000:0006AB68       TObjectReader::ReadImmediate((void))
 0000:0006AD34       FDragAndDrop
 0000:0006AEE0       CreateSocketPhys__11TCardSocketFP6TUPhysUlT2Uc
 0000:0006B3CC       TADC::GetSample((ADCMuxType,ulong,void (*)(void *,long,ulong),void *))
 0000:0006B460       TADC::UsePolling((uchar))
 0000:0006B504       PCMCIAPowerInUse(void)
 0000:0006B5F4       TCircleBuf::BufferCountToNextMarker((ulong *))
 0000:0006B668       TCircleBuf::FlushToNextMarker((ulong *))
 0000:0006B6B4       CopyOut__10TCircleBufFP11CBufferListPUlT2
 0000:0006B7B0       CopyOut__10TCircleBufFPUcPUlT2
 0000:0006B8A0       TCircleBuf::CopyIn((CBufferList *,ulong *))
 0000:0006BAA0       TCircleBuf::GetNextByte((uchar *))
 0000:0006BB08       TCircleBuf::GetNextByte((uchar *,ulong *))
 0000:0006BBE4       TCircleBuf::PutNextByte((uchar,ulong))
 0000:0006BCB8       TCircleBuf::PutNextEOM((ulong))
 0000:0006BDB8       DMABufInfo__10TCircleBufFPUlT1PUcT3
 0000:0006BE14       TCircleBuf::DMAGetInfo((ulong *))
 0000:0006BE78       TCircleBuf::DMAGetUpdate((ulong))
 0000:0006BEE4       DMAPutUpdate__10TCircleBufFUlUcT1
 0000:0006BF4C       Allocate__10TCircleBufFUliUcT3
 0000:0006C088       TCircleBuf::GetAlignLong((void))
 0000:0006C09C       TCircleBuf::PutAlignLong((void))
 0000:0006C15C       TCircleBuf::PeekNextEOMIndex((void))
 0000:0006C178       TCircleBuf::Deallocate((void))
 0000:0006C254       TXNewtGraphicsRun::DrawContent((Rect const &))
 0000:0006C3F0       StrokeCentral::IGCompressGroup((TStrokeUnit **))
 0000:0006C414       StrokeCentral::CompressGroup((void))
 0000:0006C4D0       StrokeCentral::ExpireAll((void))
 0000:0006C69C       TClassInfoRegistryImpl::UpdateInstanceCount((TClassInfo const *,long))
 0000:0006C708       TClassInfoRegistryImpl::GetInstanceCount((TClassInfo const *))
 0000:0006C890       TClassInfoRegistryImpl::DeRegister((TClassInfo const *,uchar))
 0000:0006CA04       Satisfies__FPC10TClassInfoPCcT2Ul
 0000:0006CAE0       SatisifiesCapabilities__FP14SProtocolEntryPCcT2
 0000:0006CBB8       TClassInfo::New(const(void))
 0000:0006CC38       TClassInfo::Destroy(const(TProtocol *))
 0000:0006CE7C       NewByName__FPCcN21
 0000:0006CEB8       AllocInstanceByName__FPCcT1
 0000:0006CF40       FreeInstance(TProtocol *)
 0000:0006CFC8       ClassInfoFromHunkByName__FPvPCcT2
 0000:0006D074       NewFakeIndirectBlock
 0000:0006D0B0       StartupProtocolRegistry(void)
 0000:0006D10C       Rdebugcodeblockprototype
 0000:0006D134       PrivateClassInfoInterfaceName(TClassInfo const *)
 0000:0006D140       PrivateClassInfoImplementationName(TClassInfo const *)
 0000:0006D328       TClassOneModem::C2ParseDIS((uchar *,FaxClass2FDIS *))
 0000:0006D52C       TClassOneModem::ParseModemRsp((uchar *))
 0000:0006D91C       TClassOneModem::UpdateDialOptionsStr((void))
 0000:0006E64C       TClassOneModem::C1PktPutBytes((Class1CmdResults))
 0000:0006E774       TClassOneModem::C1PktGetBytes((Class1CmdResults))
 0000:0006E9FC       TClassOneModem::C2PktGetBytes((void))
 0000:0006ED54       UpdateScrollers__6TXViewFUcT1
 0000:0006ED7C       TClassOneModem::SetActiveConfigStrs((TCMOModemProfile *))
 0000:0006EF2C       TClassOneModem::InitPhoneNumberInfo((void))
 0000:0006F12C       UiToA(ulong,uchar *)
 0000:0006F194       reverse(uchar *)
 0000:0006F4B0       TClassOneModem::ZeroStuffingDeinit((void))
 0000:0006FABC       TClassOneModem::C2DoCommand((ulong))
 0000:0006FF64       TClassOneModem::PostCommEvent((TCommToolGetEventReply &,long))
 0000:00070178       TClassOneModem::OpenStart((TOptionArray *))
 0000:000701B4       OuterBounds1(TRect *,ulong)
 0000:00070324       JournalStopReplay(void)
 0000:00070E5C       TClassOneModem::C1CnctCheckAndSetListenTimer((void))
 0000:00070F98       TClassOneModem::C1CnctGetCheckRingCountResponse((void))
 0000:000712CC       TClassOneModem::TaskDestructor((void))
 0000:00071DE0       TClassOneModem::C1IdWakeUp((void))
 0000:00071F30       ThrowBadTypeWithFrameData(long,RefVar const &)
 0000:00072124       TClassOneModem::C1IdGetIdCmdResponse((void))
 0000:00072260       kModemIdStr224
 0000:000722E0       kModemCmdStrDirect
 0000:000722E4       kModemIdStrUnknown
 0000:00072364       kModemIdStrELSA
 0000:00072368       kModemCmdStrNoECELSA
 0000:0007236C       kModemCmdStrECOnlyELSA
 0000:00072370       kModemCmdStrECFallBackELSA
 0000:00072374       kModemCmdStrDirectELSA
 0000:000723E0       kModemIdStrBicHS
 0000:000723E4       kModemCmdStrNoECBicHS
 0000:000723E8       kModemCmdStrECOnlyBicHS
 0000:000723EC       kModemCmdStrECFallBackBicHS
 0000:000723F0       kModemCmdStrDirectBicHS
 0000:00072458       kModemIdStr9624ACW
 0000:000724A4       kModemCmdStrCellular
 0000:000724A8       kModemIdStr96V24A
 0000:000724AC       kModemIdStr96V24B
 0000:000724B0       kModemIdStr96V24F
 0000:00072560       kModemCmdStrECOnly
 0000:00072564       kModemCmdStrECFallBack
 0000:00072660       TClassOneModem::C1IdACLSetV32bis((void))
 0000:00073014       TClassOneModem::C1GetCapExtractResult((ulong *))
 0000:000736E8       TClassOneModem::BeginModemCommand((ulong))
 0000:0007388C       TClassOneModem::PutCommand((void))
 0000:00073C58       BuildCommand__14TClassOneModemFPCUcPUcUlT2T3T2T3
 0000:00075318       TClassOneModem::AdjustForConnectSpeed((void))
 0000:000765AC       TSerialEndpoint::HandlePutReply((TCommToolPutPB *))
 0000:000767E0       NSSend__FRC6RefVarN21
 0000:0007686C       TClipper::TClipper((void))
 0000:00076CF4       StrokeCentral::IdleCompress((void))
 0000:00076D54       FNBPStop
 0000:00076D8C       FNBPGetCount
 0000:00076EE8       FNBPStartLookup__FRC6RefVarT1
 0000:00076F28       FNBPStopLookup(RefVar const &)
 0000:00076F8C       rand
 0000:00076FE4       Fnextafterd
 0000:0007703C       FOpenAppleTalk
 0000:000770F4       ExtractNameFromNetAddress(RefVar const &)
 0000:00077228       FGetNames__FRC6RefVarT1
 0000:000773A0       FGetZoneList(RefVar const &)
 0000:00077800       TScriptEndpointClient::DoSetOptions((RefVar const &))
 0000:00077A3C       TScriptEndpointClient::ConvertToOptionArray((RefVar const &,TOptionArray *))
 0000:00077B10       TScriptEndpointClient::ConvertToAddressParms((RefVar const &))
 0000:00078ECC       TScriptEndpointClient::ConvertFromOption((TOption *))
 0000:000795DC       SymbolCompare__FlT1
 0000:00079788       TScriptEndpointClient::DoDisconnect((void))
 0000:000797CC       TDocker::GetState((void))
 0000:0007980C       DoOutput__21TScriptEndpointClientFRC6RefVarT1
 0000:00079920       TScriptEndpointClient::DoOutputOne((RefVar const &,uchar *))
 0000:00079AF4       TScriptEndpointClient::DoFlushOutput((void))
 0000:00079DB4       TScriptEndpointClient::SetInputSpec((RefVar const &))
 0000:0007A33C       IsRawBinary(RefVar const &)
 0000:0007A38C       TScriptEndpointClient::DoFlushPartial((void))
 0000:0007A6A8       TScriptEndpointClient::ConvertBlock((uchar *,long))
 0000:0007AB48       TScriptEndpointClient::OptMgmtComplete((TEndpointEvent *))
 0000:0007ACD0       TScriptEndpointClient::Yield((void))
 0000:0007ADC4       TScriptEndpointClient::DoReadyForOutput((RefVar const &))
 0000:0007AE40       CIInstantiate
 0000:0007AE90       CIInstantiateFromEndpoint
 0000:0007B440       CISetInputSpec
 0000:0007B7D8       InitScriptEndpointClient__21TScriptEndpointClientFRC6RefVarT1P9TEndpoint
 0000:0007BB1C       CIJustListen
 0000:0007BBD8       CIJustConnect
 0000:0007BE84       CIJustClose
 0000:0007BEC4       GetOSPortFromName(ulong,TUPort *)
 0000:0007BF3C       CMSCPLoad__FUlN21
 0000:0007BFA0       CMSCPSetLastLoadedPackage__FUlT1
 0000:0007BFFC       CMSCPGetLastLoadedPackage__FPUlT1
 0000:0007C130       CMStartServiceInternal(TOptionArray *,TServiceInfo *)
 0000:0007C198       CMGetEndpoint(TOptionArray *,TEndpoint **,uchar)
 0000:0007C32C       CMSetLastDevice(TConnectedDevice *)
 0000:0007C59C       TCMEventHandler::StartService((TUMsgToken *,TCMEvent *))
 0000:0007C84C       TCMEventHandler::SetLastDevice((TCMEvent *))
 0000:0007C884       TCMEventHandler::GetLastPackage((TCMEvent *))
 0000:0007C8DC       TCMEventHandler::SetLastPackage((TCMEvent *))
 0000:0007C9E0       ServiceToPort(ulong,TUPort *,TUPort *)
 0000:0007CAEC       TCMSCPAsyncMessage::ReplyRPC((void))
 0000:0007CCB8       SCPLoad__8TCMWorldFUlN21P10TUMsgTokenT1
 0000:0007CF2C       TCMWorld::MatchPendingServiceMessage((TUMsgToken *))
 0000:0007D178       TStartInfo::Init((TUMsgToken *,TCMEvent *))
 0000:0007D208       TStartInfo::Complete((long))
 0000:0007D310       CMGetServiceVersion(ulong,ulong *)
 0000:0007D638       TCMOEndpointName::TCMOEndpointName((void))
 0000:0007D714       TCMOServiceIdentifier::TCMOServiceIdentifier((void))
 0000:0007E92C       Fmax
 0000:0007E9DC       TCommTool::TerminateConnection((void))
 0000:0007EA68       TCommTool::TerminateComplete((void))
 0000:0007F0C4       TCommToolOptionInfo::TCommToolOptionInfo((void))
 0000:0007F320       TCommTool::TaskConstructor((void))
 0000:0007F4C8       TCommTool::UnRegisterPort((void))
 0000:0007F5B8       TCommTool::GetToolPort((ulong,TUPort &))
 0000:0007F644       Fmin
 0000:0007F69C       TCommTool::TaskMain((void))
 0000:00080084       TCommTool::DoKillGetCommEvent((void))
 0000:00081240       CharToPoint__FlT1P6FPoint
 0000:00081404       IrMinTurnTimeTable
 0000:00081444       AckNodeSizeTab
 0000:000816C8       CompDiv
 0000:00081A70       SCompactState::Init((void))
 0000:00081B68       TClassOneModem::C1IdACLSetProfile((void))
 0000:00081C24       TCompletion::Complete((TAppleTalkMessage *,ulong))
 0000:00081D18       TCompressor::Compress((char **))
 0000:00081DFC       TCompressor::EstimatedCompressedSize((char **))
 0000:000820C4       TConnectionEnd::GetComplete((long,uchar,ulong))
 0000:000822A0       TConnectionEnd::PutComplete((long,ulong))
 0000:000823E4       TConnectionEnd::ProcessOptionsContinue((TCommToolOptionInfo *))
 0000:00083050       TSoundServerHandler::AEHandlerProc((TUMsgToken *,ulong *,TAEvent *))
 0000:00083848       DispatchRequest__14TConnectionEndFPUcUlT2P10TUMsgToken
 0000:00083B28       IOPowerOn(ulong)
 0000:00083B7C       TConnectionEnd::TerminateComplete((void))
 0000:00083D1C       TConnectionEnd::SetChannelFilter((CommToolRequestType,uchar))
 0000:00083EA0       Fcompound
 0000:00083F7C       TContainerView::HandleHilite((TUnitPublic *,long,uchar))
 0000:00084794       TCardPartHandler::Remove((PartId const &,ulong,long))
 0000:0008507C       TContainerView::DerivedFrom(const(long))
 0000:00085100       InsertLast__9TWordListFPPUslT2
 0000:00085530       GetValue__14TContainerViewFRC6RefVarT1
 0000:000856B0       TContainerView::ChildBoundsChanged((TView *,TRect &))
 0000:00085BD4       decode_offset_case10_bin(long,Pushpopper *)
 0000:00085C68       O10
 0000:00085C6C       decode_offset_case7_bin(long,Pushpopper *)
 0000:00085D08       O7
 0000:00085D0C       decode_offset_case9_bin(long,Pushpopper *)
 0000:00085DAC       O9
 0000:00085DB0       decode_offset_case8_bin(long,Pushpopper *)
 0000:00085E50       O8
 0000:00085E54       decode_offset_case4_bin(long,Pushpopper *)
 0000:00085EF4       O4
 0000:00085EF8       decode_offset_case5_bin(long,Pushpopper *)
 0000:00085F80       O5
 0000:00085FA4       decode_offset_case6_bin(long,Pushpopper *)
 0000:00086048       O6
 0000:0008604C       decode_offset_case2_bin(long,Pushpopper *)
 0000:000860F0       O2
 0000:000860F4       decode_offset_case3_bin(long,Pushpopper *)
 0000:0008619C       O3
 0000:0008625C       decode_offset_case1_bin(long,Pushpopper *)
 0000:00086304       O1
 0000:00086A08       FMoveCorrectionInfo__FRC6RefVarN41
 0000:00086AE0       DoOverflowLearning(RefVar const &)
 0000:00086C20       AddWordInfo__FP5TViewlT2P11TUnitPublic
 0000:00086CB8       TAnimate::PoofEffect((void))
 0000:00086D50       OffsetCorrectionInfo__FRC6RefVarP5TViewlN23
 0000:00087090       ClearCorrectionRange__FRC6RefVarP5TViewlT3
 0000:00087A5C       GetWordInfo__FRC6RefVarP5TViewlT3
 0000:00087BE4       AddWordInfo__FRC6RefVarT1
 0000:0008800C       FindMatchingWord__FRC6RefVarT1
 0000:00088464       RemoveToggledEntries(RefVar const &,long)
 0000:000887C8       EncodeUnitID(TUnitPublic *)
 0000:0008884C       UnitID(RefVar const &)
 0000:00088AE8       DoEntryLearning(RefVar const &,long)
 0000:00088C40       MakeWordInfo(TUnitPublic *)
 0000:00088E00       MakeWordInfo(RefVar const &)
 0000:000896E8       TObjectReader::ReadSmallRect((void))
 0000:0008988C       FDrawOriginal
 0000:00089ADC       InsetRect__FP4RectlT2
 0000:00089CBC       GetToggledWord(RefVar const &)
 0000:00089DB0       OffsetCorrectionInfo__FP5TViewlN22
 0000:00089FF4       AutoAdd(RefVar const &)
 0000:0008A0A4       AutoRemove(RefVar const &)
 0000:0008A188       FTestWordInfoFlags
 0000:0008A440       FFindWordInfo
 0000:0008A694       FInsertRange
 0000:0008A6E4       RefVar::RefVar((RefVar const &))
 0000:0008AF48       TAlertDialog::DisplayAlert((void))
 0000:0008B480       TSocket::ReceiveGetResults((uchar *,ulong *,TAddress *))
 0000:0008B57C       TATSocket::Read((TUMsgToken *,TPacketMessage *,TDDPPacketLong *))
 0000:0008BBCC       TDDP::Write((TAppleTalkMessage *))
 0000:0008BDA4       TDDP::OpenSocket((TAppleTalkMessage *))
 0000:0008BEB0       TDDP::CloseSocket((TAppleTalkMessage *))
 0000:0008BF08       TDDP::ReceiveDatagram((TUMsgToken *,TAppleTalkMessage *))
 0000:0008BF5C       TDDP::CancelReceiveDatagram((TAppleTalkMessage *))
 0000:0008C01C       TDDP::ATLKOpen((TAppleTalkMessage *))
 0000:0008C774       TATSocket::ReceiveDatagram((TUMsgToken *,TReceiveDatagramMessage *))
 0000:0008D560       TXDisplay::Scroll((TXLongPoint *))
 0000:0008D5C4       gTXTempRegions
 0000:0008D944       LexLookup(AirusAParmBlock **,char *)
 0000:0008DAD0       InitDSDictionary__FRC6RefVarT1
 0000:0008DE48       MakePhrasalLexEntry__FRC6RefVarT1
 0000:0008E030       NewASCIIString(RefVar const &)
 0000:0008E128       DynaCompress(ulong)
 0000:0008E2E0       DownCase(uchar *)
 0000:0008F54C       DSFindPossiblePhone__FRC6RefVarT1
 0000:0008F684       DSConstructSubjectLine__FRC6RefVarT1
 0000:0008FA84       DSFindPossibleName__FRC6RefVarN21
 0000:00090274       DSScanForWackyName__FRC6RefVarN21
 0000:000907A4       RecordHistory(RefVar const &)
 0000:00090824       InitDSHeuristics__FRC6RefVarT1
 0000:00091208       PeekValidPhrase(void)
 0000:00091674       PrintGeneratorState(void)
 0000:000917AC       PhraseHit__FiT1
 0000:00093EDC       NStringCat__FRC6RefVarN21
 0000:00093F44       StringAssoc__FRC6RefVarN21
 0000:000942EC       StringDicer(RefVar const &,ulong)
 0000:000945B8       DSStringEQ__FRC6RefVarN21
 0000:00094954       SplitString__FRC6RefVarT1
 0000:00094E44       GenerateSubstrings__FRC6RefVarT1
 0000:0009518C       MakeLowerCase__FRC6RefVarT1
 0000:000951D4       FillPreconditions__FRC6RefVarT1
 0000:0009587C       InitDSTaskTemplates__FRC6RefVarT1
 0000:000958F8       DriveTaskSlip__FRC6RefVarT1
 0000:000959D8       RegTaskTemplate__FRC6RefVarT1
 0000:000965E8       GetClasses(RefVar const &)
 0000:00097080       CheezyIntersect__FRC6RefVarN21
 0000:00097274       PathToRoot__FRC6RefVarT1
 0000:0009752C       CompositeClass__FRC6RefVarT1
 0000:00097D88       UniqueAppendItem__FRC6RefVarN21
 0000:00097DE8       member_p__FRC6RefVarT1
 0000:000986DC       SetTabPt(SamplePt *,TabPt *)
 0000:0009911C       FGetFontSize
 0000:00099200       ClearSkipPoint(tag_SKP *)
 0000:00099330       InitDarkStar__FRC6RefVarT1
 0000:00099ADC       FTimeInSeconds(RefVar const &)
 0000:00099C30       WeekNumCalc__FlT1
 0000:00099DAC       FWeekNumber
 0000:00099EA4       FSetTimeInSeconds
 0000:00099F10       FTotalMinutes__FRC6RefVarT1
 0000:0009A154       FDate__FRC6RefVarT1
 0000:0009A1C0       FDateFromSeconds
 0000:0009A2E8       NextDayOfWeek(TDate *,ulong)
 0000:0009A41C       SnoopIntegerSlot__FRC6RefVarT1l
 0000:0009A6DC       AddException__FRC6RefVarT1lT3
 0000:0009A7B4       MergeMeetingLists__FRC6RefVarN21lT4
 0000:0009A9C8       GetRepeatingMeetings__FRC6RefVarT1UlT3Uc
 0000:0009AF08       GetInstanceMeetings__FRC6RefVarT1
 0000:0009AFBC       GetAllMeetings__FRC6RefVarT1lT3Uc
 0000:0009B220       FindExceptionMeetingInRange__FRC6RefVarlT2
 0000:0009B368       NextDateOfMonth(TDate *,ulong)
 0000:0009B5FC       FNextMeeting__FRC6RefVarN21
 0000:0009B86C       FPrevMeeting__FRC6RefVarN21
 0000:0009BC48       NextDateByWeekInYear(TDate *,ulong)
 0000:0009C02C       TDate::TotalMinutes(const(void))
 0000:0009C05C       TDate::TotalSeconds(const(void))
 0000:0009CDDC       TimeString__5TDateFUlPUsT1
 0000:0009D784       TDate::StringToDateFields((ushort const *,ulong *,ulong))
 0000:0009D954       TDate::StringToDateFrame((ushort const *,ulong *,ulong))
 0000:0009DBD4       TDate::StringToDate((ushort const *,ulong *,ulong))
 0000:0009DCE8       TDate::StringToTime((ushort const *,ulong *,ulong))
 0000:0009DE10       __lt__FRC5TDateT1
 0000:0009DE40       __gt__FRC5TDateT1
 0000:0009E170       TDate::InitWithMinutes((ulong))
 0000:0009E28C       TDate::TotalHours(const(void))
 0000:0009E2B0       GetOnePage__FPUlT1
 0000:0009E324       Rromphrasallexicon
 0000:0009E458       GetScriptDictRef(RefVar const &)
 0000:0009E4EC       FAirusDeletePrefix
 0000:0009E540       FAirusChangeAttribute
 0000:0009E684       FSpellCheck
 0000:0009EAF0       FAirusWalkDictionary
 0000:0009ED2C       FAirusIteratorClone
 0000:0009EE48       FAirusIteratorReset
 0000:0009EF0C       FAirusIteratorThisWord
 0000:0009F028       FAirusIteratorNextWord
 0000:0009F04C       FAirusIteratorPreviousWord
 0000:0009F070       FAirusIteratorDispose
 0000:0009F170       CTaskPipe::Overflow((void))
 0000:0009F250       FAirusDictionaryType
 0000:0009F27C       FAirusAttributeSize
 0000:0009F3B4       FAirusAddWord
 0000:0009F42C       FAirusDeleteWord
 0000:0009F480       AddDictionaries__16TDictPartHandlerFRC6RefVarT1
 0000:0009F71C       TDictPartHandler::Install((PartId const &,SourceType,PartInfo *))
 0000:0009F86C       TApplication::Undo((void))
 0000:0009F94C       TDictPartHandler::Expand((void *,CPipe *,PartInfo *))
 0000:0009FBA4       TDocker::RemoveProtocolExtension((RefVar const &,ulong))
 0000:0009FDA0       DrawSlab__FlN21PcT4P4RectPFPUlT1UllN23_v
 0000:000A021C       TDocker::DoRemovePackage((void))
 0000:000A02AC       TDockerDynArray::AddAndReplaceZero((ulong,long &))
 0000:000A0444       TDocker::RemoteQuery((void))
 0000:000A0644       TDocker::RemoteCursorGotoKey((void))
 0000:000A06BC       TDocker::RemoteCursorMap((void))
 0000:000A08C8       TDocker::RemoteCursorReset((void))
 0000:000A0908       TDocker::RemoteCursorResetToEnd((void))
 0000:000A0948       TDocker::RemoteCursorCountEntries((void))
 0000:000A09A4       TDocker::RemoteCursorWhichEnd((void))
 0000:000A0A50       TDocker::RemoteCursorFree((void))
 0000:000A1898       TDocker::ProcessException((Exception *))
 0000:000A18FC       exPipeException
 0000:000A1900       exLongErrorException
 0000:000A1964       exErrorException
 0000:000A19B4       TDocker::Delay((ulong))
 0000:000A1AB0       TDocker::CleanUpIfStopping((uchar))
 0000:000A1C74       TDocker::ReadInitiateDocking((void))
 0000:000A222C       Connect__7TDockerFRC6RefVarN21
 0000:000A2728       TDocker::CompatabilityHacks((void))
 0000:000A2B00       TDocker::KeyboardProcessCommand((void))
 0000:000A34D0       TDocker::ReadData((RefVar &))
 0000:000A35A8       ReadCommand__7TDockerFR6RefVarUcT2
 0000:000A3ADC       FConnBuildStoreFrame
 0000:000A3E24       FConnInstantiate
 0000:000A3EF0       FProcessBuiltinCommand
 0000:000A4344       FConnWriteBytes
 0000:000A4384       ConnReadCommand__FRC6RefVarUcT2
 0000:000A4430       FConnReadCommandData
 0000:000A4550       FConnInstallProtocolExtension
 0000:000A45A8       FConnRemoveProtocolExtension
 0000:000A460C       TCursorArray::Get((ulong))
 0000:000A464C       InterruptedSuperMode
 0000:000A46D0       FConnDesktopType
 0000:000A4998       SaveTheDocker(RefVar const &,TDocker *)
 0000:000A4C7C       TDocker::TossDataStructures((void))
 0000:000A53F4       TDocker::WriteSoupNames((void))
 0000:000A580C       TDocker::SetCurrentStore((uchar))
 0000:000A5D34       TDocker::SetupSoup((void))
 0000:000A6138       TDocker::ReadCurrentSoup((void))
 0000:000A647C       TDocker::GetSoupIDCount((RefVar const &))
 0000:000A652C       TDocker::ValidateQuery((void))
 0000:000A6580       TDocker::CheckCancel((ulong &))
 0000:000A67B0       TDocker::FinishSequence((short &,short))
 0000:000A680C       TDocker::SoupChangedSinceLastBackup((void))
 0000:000A6F28       TDocker::WriteSoupIDs((void))
 0000:000A7204       TDocker::WriteChangedIDs((void))
 0000:000A73E8       TDocker::WriteRef((ulong,RefVar const &))
 0000:000A760C       TDocker::WriteEntry((ulong,RefVar const &))
 0000:000A76F8       TDocker::DeleteEntries((void))
 0000:000A77C8       RefsEqual__7TDockerFRC6RefVarT1
 0000:000A7A40       FramesEqual__7TDockerFRC6RefVarT1Ul
 0000:000A7CB4       TDocker::IsDuplicateEntry((RefVar const &))
 0000:000A8330       TDocker::AddEntry((uchar))
 0000:000A882C       TDocker::ChangeEntry((void))
 0000:000A88B8       TDocker::ReturnEntry((ulong))
 0000:000A893C       TDocker::EmptyOrDelete((ulong))
 0000:000A8B18       TDocker::GetPackageInfo((void))
 0000:000A9150       TDocker::SetSoupSignature((void))
 0000:000A9228       TDocker::ReadSourceVersion((void))
 0000:000A9570       TDocker::FlushCommand((void))
 0000:000A97F8       InstallProtocolExtension__7TDockerFRC6RefVarT1Ul
 0000:000A9AB0       RegisterFaultMonitor__FUlN21
 0000:000A9AEC       DeregisterFaultMonitorByDomainNumber(ulong)
 0000:000A9D28       TDoubleQContainer::DeleteFromQueue((void *))
 0000:000A9DF0       __ct__17TDoubleQContainerFPcPFPvT1_vPv
 0000:000A9F3C       RegionPicCodes(long,PicPlay *,GrafPort *)
 0000:000AA144       TEditView::OffsetToCaret((long,TRect *))
 0000:000AA7D4       TView::AlignDragPtToGrid((TDragInfo const &,TPoint *))
 0000:000AA880       FindDropViewDeep(TView *,TDragInfo const &,TPoint const &)
 0000:000AA918       TEditView::AddHiliter((TUnitPublic *))
 0000:000AB294       Drop__5TViewFRC6RefVarT1P6TPoint
 0000:000AB428       TKeyboardView::DerivedFrom(const(long))
 0000:000ABCB4       TruncateLabel__10TClipboardSFP11TRichStringRC6RefVar
 0000:000ABEC4       CreateLabelForm__10TClipboardSFRC9TDragInfoRC6RefVarRC6TPoint
 0000:000ACF44       FGrayShrink
 0000:000ACFC4       TDragInfo::SetItemView((long,TView *))
 0000:000AD388       TDragInfo::AddDragItem((void))
 0000:000AD5BC       DropMove__5TViewFRC6RefVarRC6TPointT2Uc
 0000:000AD6E4       TView::GetSupportedDropTypes((TPoint const &))
 0000:000AD7C4       CDynamicArray::CDynamicArray((void))
 0000:000AD808       CDynamicArray::SetArraySize((long))
 0000:000AD8C0       CDynamicArray::SetElementCount((long))
 0000:000AD8E4       __ct__13CDynamicArrayFlT1
 0000:000ADC2C       HandleWord__9TEditViewFPUsUlR5TRectT3P11TUnitPublicRC6RefVarPl
 0000:000ADDD8       gRootView
 0000:000AE478       AddNewParagraph__9TEditViewFPUsUlR5TRectT3P11TUnitPublicRC6RefVarPlT6
 0000:000AF05C       AlignBounds__9TEditViewFR5TRectT1P5TRect
 0000:000AF6A0       TEditView::ChildBoundsChanged((TView *,TRect &))
 0000:000AF878       TEditView::GetCaretGlobalTopLeft((void))
 0000:000AF960       PartOfTapDrag(TUnitPublic *)
 0000:000AF9AC       TDataView::DerivedFrom(const(long))
 0000:000AF9E4       TEditView::HandleShape((Polygon **,long))
 0000:000AFFF4       IRProbeService::Start((TOptionArray *,ulong,TServiceInfo *))
 0000:000B00A8       ToOutsideGrayBorder(TRect *,TRect const *)
 0000:000B0468       PSoundDriver::StopInput((void))
 0000:000B04B8       NewLine(RefVar const &,long,SortStuff *)
 0000:000B098C       FindLine(RefVar const &,long *,SortStuff *)
 0000:000B0AB0       TestWordOverlap(RefVar const &,long,SortStuff *)
 0000:000B0CF4       AddToLine(RefVar const &,long,SortStuff *)
 0000:000B0E4C       FindInsertPosition(RefVar const &,long,SortStuff *)
 0000:000B1070       IsApostrophe__FP5TRectT1
 0000:000B1138       LeftOf__FP5TRectT1
 0000:000B12A4       TIrProbeTool::TIrProbeTool((ulong))
 0000:000B1300       MapIndex(long)
 0000:000B1568       TEditView::ResetHilitesForNewWord((void))
 0000:000B16CC       TEditView::RealDoCommand((RefVar const &))
 0000:000B2EAC       GetValue__9TEditViewFRC6RefVarT1
 0000:000B3230       TEditView::DrawHiliting((void))
 0000:000B3660       EndDrag__5TViewFRC9TDragInfoP5TViewRC6TPointN23Uc
 0000:000B3898       TEditView::HandleInk((TUnitPublic *))
 0000:000B3968       TEditView::HandleInk((RefVar const &))
 0000:000B3B20       TDataView::DiceHilited((RefVar const &,TEditView *,TPoint &,uchar))
 0000:000B3E70       TParagraphView::RealDoCommand((RefVar const &))
 0000:000B40F8       TListView::TrackTopic((RefVar const &,long))
 0000:000B4520       TEditView::ScrubHilite((TRect const &))
 0000:000B47A8       TEditView::DerivedFrom(const(long))
 0000:000B47DC       TEditView::GlobalSelectedBounds((TRect *))
 0000:000B4A28       TEditView::CountHilites((void))
 0000:000B4A88       Drag__5TViewFRC9TDragInfoP13TStrokePublicRC5TRectPC5TRectT4UcP6TPointT7PUcT9
 0000:000B53C0       TEditView::DeleteHilitedViews((void))
 0000:000B5704       MakeNullTerminatedString(ushort *,ulong)
 0000:000B5824       FViewIntoBitmap
 0000:000B5930       TEditView::GetDragInfo((TDragInfo *,uchar))
 0000:000B59AC       TEditView::FindDropView((TDragInfo const &,TPoint const &))
 0000:000B5AB4       Drop__9TEditViewFRC6RefVarT1P6TPoint
 0000:000B5D58       TDragInfo::GetItemView(const(long))
 0000:000B6000       TEditView::DropRemove((RefVar const &))
 0000:000B608C       TEditView::DiceHilited((void))
 0000:000B6180       TEditView::TrackDistort((TPoint,TStrokePublic *,TRect const &))
 0000:000B6AD8       TEditView::HandleInsertItems((RefVar const &))
 0000:000B6F50       TEditView::PositionCaret((TPoint &,uchar))
 0000:000B6FDC       TEditView::SetCaretRectGlobal((TRect const &))
 0000:000B7048       TEditView::ValidateCaret((uchar))
 0000:000B7254       TEditView::HiliteClick((TStrokePublic *))
 0000:000B755C       TEditView::GetHilitedViewsSorted((void))
 0000:000B777C       TEditView::AddDragInfo((TDragInfo *))
 0000:000B7978       TEditView::AddForm((RefVar const &))
 0000:000B7B90       ValidTextEditCaret(TUnitPublic *)
 0000:000B7D20       MoveBetweenParagraphs__9TEditViewFlT1
 0000:000B7DF0       ValidLineGesture(TUnitPublic *)
 0000:000B7E20       TEditView::JamText((ushort *,ulong))
 0000:000B81FC       TEndpoint::InitBaseEndpoint((TEndpointEventHandler *))
 0000:000B82A0       GetClient(RefVar const &)
 0000:000B83E8       Init__15TEndpointClientFP9TEndpointUlT2
 0000:000B86B0       CallService__21TEndpointEventHandlerFUlP14TUAsyncMessageP7TAEventlT3T4N21Uc
 0000:000B8810       CallServiceNoForks__21TEndpointEventHandlerFUlP14TUAsyncMessageP7TAEventlT3T4N21Uc
 0000:000B8964       TEndpointEventHandler::Block((ulong))
 0000:000B8A90       TEndpointEventHandler::Abort((void))
 0000:000B8B88       InitScreen(void)
 0000:000B93E4       TEndpointPipe::Underflow((long,uchar &))
 0000:000B9590       TEndpointPipe::FlushWrite((void))
 0000:000B9780       TEndpointPipe::Abort((void))
 0000:000B99AC       TEndpoint::DeleteLeavingTool((void))
 0000:000BA0D4       IsSizeAvailable(long,RefVar const &,RefVar const &)
 0000:000BA4B4       SFNTGetWidthsInfo__FlT1Pv
 0000:000BA50C       SFNTGetWidthsGlyph__FlT1Pv
 0000:000BA7B8       SFNTOpenFont__FP8PixelMapP11StyleRecordRC6RefVarlT4P14FontEngineInfo
 0000:000BAC24       SFNTGetGlyphInfo__FlT1Pv
 0000:000BAD24       SFNTGetGlyph__FlT1Pv
 0000:000BADF0       SFNTCloseFont(void *)
 0000:000BB414       TMemArchManager::TMemArchManager((void))
 0000:000BB454       TMemArchManager::AddEnvironment((TEnvironment *))
 0000:000BB4C8       TMemArchManager::AddDomainWithDomainNumber((TKDomain *,long))
 0000:000BB510       TMemArchManager::AddDomain((TKDomain *))
 0000:000BB5AC       DomainRangeIsFree__15TMemArchManagerFUlT1
 0000:000BB63C       Add__12TEnvironmentFP8TKDomainUcN22
 0000:000BB7A8       FSuckPackageFromBinary
 0000:000BB824       FAddDelayedAction__FRC6RefVarN31
 0000:000BB858       FAddDelayedCall
 0000:000BB8AC       FAddDelayedSend
 0000:000BB930       FAddDeferredCall
 0000:000BB980       FAddDeferredSend
 0000:000BB9DC       FHandleUnit
 0000:000BBAB4       FailGetResponder__FRC6RefVarT1
 0000:000BBE70       FPostCommand__FRC6RefVarN21
 0000:000BBF34       FPostCommandParam__FRC6RefVarN31
 0000:000BC204       TIASClient::SendRequest((void))
 0000:000BC2B0       FAddUndoSend
 0000:000BC304       Subexception
 0000:000BC360       GetExceptionHandler(void)
 0000:000BC3A8       SetExceptionHandler(CatchHeader *)
 0000:000BC3F0       ExitHandler
 0000:000BC594       RemoveExceptionHandler
 0000:000BC5E8       UnhandledException(char *,void *,void (*)(void *))
 0000:000BC6D0       AddPgPerm(ulong,Perm)
 0000:000BC74C       gPrimaryTable
 0000:000BC7B0       TEzEndpointPipe::TearDown((void))
 0000:000BC9E0       TEzEndpointPipe::GetADSPEndpoint((void))
 0000:000BCB50       TEzEndpointPipe::GetMNPModemEndpoint((void))
 0000:000BCDD0       TEzEndpointPipe::BytesAvailable((void))
 0000:000BD06C       EzADSPConnectOptions__FP12TOptionArrayPPclT3
 0000:000BD4BC       EzConvertOptions__FRC6RefVarPP12TOptionArrayN22
 0000:000BD9B0       TEzEndpointPipe::Init((RefVar const &,ulong))
 0000:000BDAE8       Init__15TEzEndpointPipeFP12TOptionArrayN21UcUl
 0000:000BDE14       SetFIQTimer__9TFIQTimerFP8FIQTimerUlT2
 0000:000BDF5C       TFIQTimer::SetFIQTimerForShortestDelay((void))
 0000:000BDFFC       TFIQTimer::ServiceFIQTimers((void))
 0000:000BE05C       TFIQTimer::FIQTimerInterrupt((void))
 0000:000BE0E8       ReleasePCSpyTimer(void)
 0000:000BE138       TFIQTimer::TFIQTimer((ulong *))
 0000:000BECDC       TFaxTool::C2ModemReqComplete((TClassOneModemCmdReply *))
 0000:000C0038       TFaxTool::C2SetSessionParameters((void))
 0000:000C0140       TFaxTool::C2ParseDISResponse((uchar *,FaxClass2FDIS &))
 0000:000C12DC       TRootView::SetKeyViewSelection((TView *,RefVar const &,uchar))
 0000:000C1758       TFaxTool::StartPhaseA((void))
 0000:000C2340       TFaxTool::PhaseBProcessOptions((void))
 0000:000C24D0       TFaxTool::PhaseCPktComplete((long))
 0000:000C26D8       TClassOneModem::UnbindStart((void))
 0000:000C32B0       TFaxTool::PhaseDProcessCommand((void))
 0000:000C3838       TFaxTool::SetIdentification((uchar const *const,uchar *const))
 0000:000C389C       TFaxTool::StartPhaseC((void))
 0000:000C39E0       BuildDCS__8TFaxToolFR16TT30CapabilitiesT1
 0000:000C3F70       TFaxTool::SetSessionParameters((TT30Capabilities &))
 0000:000C40F8       TFaxTool::CopyQualityResponse((void))
 0000:000C43B4       TFaxTool::StartPhaseD((void))
 0000:000C4788       TFaxTool::PhaseBPutPostMsgCmd((uchar,ulong))
 0000:000C4800       SoupIsValid
 0000:000C48E8       TFaxTool::GetResponse((void))
 0000:000C51AC       TFaxTool::AdjustSpeedForFTT((void))
 0000:000C58A0       TFaxToolInterface::GetBand((uchar *,ulong,uchar))
 0000:000C6380       TFaxToolInterface::PostBind((uchar))
 0000:000C64EC       TFaxToolInterface::PostConnect((uchar))
 0000:000C68F0       TFaxToolInterface::InitAsyncMsg((TUAsyncMessage *,ulong *))
 0000:000C71C4       TFaxTool::AllocateReceiveBuffers((void))
 0000:000C728C       TFaxTool::FreeReceiveBuffers((void))
 0000:000C7660       TFaxTool::BindStart((void))
 0000:000C82A8       TFaxTool::TaskConstructor((void))
 0000:000C8EBC       TFaxTool::AllocateLineBuffers((void))
 0000:000C936C       TP3Tool::DeliverInput((void))
 0000:000C93B0       TFaxTool::FreeLineBuffers((void))
 0000:000C95B8       TFaxTool::AllocateTCBuffer((uchar))
 0000:000C9690       FindHighROMProtocol__FPcT1R14SHighROMCookie
 0000:000C98B0       FixedRoundBy
 0000:000C98E0       FixedAtan2
 0000:000C99F8       FractSineCosine
 0000:000CA6E4       Read__9TFlashAMDFUlT1Pc
 0000:000CABAC       TFlashBlock::Lookup((ulong,int,TObjRef &,long *))
 0000:000CB464       TFlashBlock::NextObject((ulong,ulong *,uchar))
 0000:000CB600       TFlashBlock::StartCompact((SCompactState *))
 0000:000CB74C       TFlashBlock::ContinueCompact((SCompactState *))
 0000:000CB7F4       TFlashBlock::SetInfo((SFlashBlockLogEntry *,uchar *))
 0000:000CC030       TFlashBlock::CompactInto((TFlashBlock *))
 0000:000CC33C       AddMigDirEnt__11TFlashBlockFlT1
 0000:000CC3F4       TFlashBlock::ObjectMigrated((ulong,long))
 0000:000CC474       TFlashBlock::ZapMigDirEnt((ulong))
 0000:000CC5B8       TFlashBlock::WriteRootDirectory((ulong *))
 0000:000CC664       TFlashBlock::RootDirEnt((ulong))
 0000:000CC6AC       TFlashBlock::NextPSSID((void))
 0000:000CC700       CommonSoupQuery
 0000:000CC7F0       TFlashBlock::RootDirSize((void))
 0000:000CC878       TFlashBlock::CalcRecoverableBytes((void))
 0000:000CCA74       TFlashStore::EraseStatus((ulong))
 0000:000CCB08       Zap__11TFlashStoreFUlT1
 0000:000CCF84       TFlashStore::VppOff((void))
 0000:000CD074       TFlashStore::SyncErase((ulong))
 0000:000CD1B0       TFlashIterator::TFlashIterator((TFlashStore *,TObjRef *,IterFilterType))
 0000:000CD260       TFlashIterator::Lookup((ulong,int,long *))
 0000:000CD48C       TFlashIterator::GetDirEnt((ulong))
 0000:000CD4C4       TFlashIterator::CountUnusedDirEnt((void))
 0000:000CD500       TFlashIterator::TFlashIterator((TFlashStore *,TObjRef *,ulong,IterFilterType))
 0000:000CD550       TFlashIterator::TFlashIterator((TFlashStore *,TObjRef *,TFlashBlock *,IterFilterType))
 0000:000CD5A0       TFlashIterator::TFlashIterator((TFlashStore *,SDirEnt *,ulong))
 0000:000CD684       TFlashIterator::Probe((void))
 0000:000CE058       AddLogEntryToPhysBlock__11TFlashStoreFUlT1P14SFlashLogEntryT1PUl
 0000:000CE9F8       TFlashSeries2::Status((ulong))
 0000:000CEB20       TFlashSeries2::GetWriteProtected((uchar *))
 0000:000CEC00       TFlashSeries2::ResetCard((void))
 0000:000CF984       Read__13TFlashSeries2FUlT1Pc
 0000:000D0110       Change__22TFlashStoreLookupCacheFUlT1i
 0000:000D05EC       TFlashStore::NewObject((char *,long,ulong *))
 0000:000D0838       AddObject__11TFlashStoreFUliT1R7TObjRefUcT5
 0000:000D0D10       TFlashStore::SetObjectSize((ulong,long))
 0000:000D13B8       Write__11TFlashStoreFUllPcT2
 0000:000D1D98       ReplaceObject__11TFlashStoreFR7TObjRefT1PcliN25
 0000:000D22B4       TFlashStore::IsSameStore((void *,ulong))
 0000:000D2A2C       FindPhysWritable__11TFlashStoreFUlN21
 0000:000D2AA4       BasicWrite__11TFlashStoreFUlPvT1
 0000:000D2B20       exAbort
 0000:000D2C04       Init__11TFlashStoreFPvUlT2iT2T1
 0000:000D3228       BasicRead__11TFlashStoreFUlPvT1
 0000:000D33A0       BasicCopy__11TFlashStoreFUlN21
 0000:000D3834       TFlashStore::ObjectNumberFor((ulong))
 0000:000D3848       PSSIDFor__11TFlashStoreFlT1
 0000:000D3854       GetStoreSizes__11TFlashStoreFPlT1
 0000:000D3970       TFlashStore::Avail((void))
 0000:000D3AD0       TFlashStore::UnlockStore((void))
 0000:000D3D08       TFlashStore::StoreKind((void))
 0000:000D3EFC       InitVppManager(void)
 0000:000D447C       TFlashStore::TransactionState((int *))
 0000:000D4628       TFlashStore::DeleteTransactionRecord((void))
 0000:000D46F4       TFlashStore::MarkCommitPoint((void))
 0000:000D47D0       TFlashStore::DoCommit((uchar))
 0000:000D4F04       IsRangeVirgin__11TFlashStoreFUlT1
 0000:000D4F78       TFlashStore::GC((void))
 0000:000D501C       TFlashStore::StartTransactionAgainst((ulong))
 0000:000D59E4       TFlashStore::InternalStoreSlop((void))
 0000:000D5A00       TFlashStore::NewWithinTransaction((long,uchar,ulong *))
 0000:000D5BBC       CalcXIPObjectSize__11TFlashStoreFlT1Pl
 0000:000D5F98       TPickView::GetItemLength((long))
 0000:000D5FAC       SetupForModify__11TFlashStoreFUlP7TObjRefUcT3
 0000:000D60F8       TFlashTracker::TFlashTracker((void))
 0000:000D6170       TFlashTracker::Init((ulong))
 0000:000D6554       TForkWorld::TaskMain((void))
 0000:000D6888       MainInit__10TForkWorldFUlT1
 0000:000D68C4       MainInit__10TForkWorldFUlN31
 0000:000D7288       MarshalArguments__FRC6RefVarT1PPvi
 0000:000D7E34       AggregateSize(RefVar const &,ulong *)
 0000:000D7F24       PrimCallProtocolFromFrames__FRC6RefVarN41
 0000:000D816C       PrimCallProtocolFromFrames2
 0000:000D8244       PrimCallProtocolFromFrames3
 0000:000D87E8       MarshalCString__FRC6RefVarPPvT2PUlT4il
 0000:000D89E0       MarshalAggregrate__FRC6RefVarT1PPvT3PUlT5liT1
 0000:000D949C       ConstructReturnValue(void *,RefVar const &,long *,int)
 0000:000D9768       TXRulerTabsBar::PointToBitMapIndex(const(Point,TXTab *))
 0000:000D9B28       TFramedAsyncSerTool::TFramedAsyncSerTool((ulong))
 0000:000D9BBC       NSSend__FRC6RefVarN61
 0000:000D9CC4       TFramedAsyncSerTool::FillOutputBuffer((void))
 0000:000D9FC4       TFramedAsyncSerTool::EmptyInputBuffer((ulong *))
 0000:000DA614       TFramedAsyncSerTool::TaskConstructor((void))
 0000:000DD814       TGCSafeList::TGCSafeList((void))
 0000:000DDAA0       TGCSafeSortedList::TGCSafeSortedList((CItemComparer *))
 0000:000DDB8C       TXDisplay::DrawLineGroup((TXSectLines const &,Region **))
 0000:000DDC0C       MixLin16__FPvT1l
 0000:000DEEB8       GenericSWIHandler
 0000:000DF580       EnvironmentHasDomain__FUlT1PUcT3
 0000:000DF664       AddDomainToEnvironment__FUlN21
 0000:000DF76C       RemoveDomainFromEnvironment__FUlT1
 0000:000DF82C       TCardServer::SendMessage((TUPort *,TCardAsyncMsg *,ulong,TTime *))
 0000:000DF8A8       SemGroupSetRefCon(ulong,void *)
 0000:000DF964       ClearFIQAtomic(void)
 0000:000DF9E8       VToP(ulong)
 0000:000DFA1C       SetTabletCalibrationDataSWI(void)
 0000:000DFA84       SetAlarm__15TURealTimeAlarmSFUl5TTimeN21PvlT1
 0000:000DFB0C       CleanRangeInDCSWIGlue
 0000:000DFB60       RemovePMappings__FUlT1
 0000:000DFBD8       TAsyncSerTool::DeallocateBuffers((void))
 0000:000DFCD4       Restart(void)
 0000:000DFD04       SemGroupGetRefCon(ulong,void **)
 0000:000DFDC0       GetEnvironment(ulong *)
 0000:000E0024       DrawAt__13TInkWordGlyphFUlT1
 0000:000E0540       SetInkWordFontFace(RefVar const &,ulong)
 0000:000E0638       SetInkWordPenSize(RefVar const &,ulong)
 0000:000E0690       SetInkWordScale(RefVar const &,long)
 0000:000E06E8       GetInkWordAddrData(RefVar const &)
 0000:000E0708       GetInkWordAddrInfo(RefVar const &,InkWordInfo *)
 0000:000E0B1C       FMakeWedge
 0000:000E0C7C       FMakeRegion
 0000:000E0F7C       ROM_CommonMakePict__FP5TViewR5TRectRC6RefVarT3
 0000:000E18F8       FMakeTextLines
 0000:000E1D58       FMakePict
 0000:000E1D94       MakePixelsObject__FR5TRectlN32RC6RefVarN26
 0000:000E2998       FShapeBounds
 0000:000E2EB8       TDictPartHandler::Remove((PartId const &,ulong,long))
 0000:000E3670       FDrawIntoBitmap
 0000:000E3838       DrawShape__FRC6RefVarT1RC6TPoint
 0000:000E390C       DrawShapeScaled__FRC6RefVarT1RC6TPoint5Point
 0000:000E3B2C       DrawShapeList(RefVar const &,TPoint const &,TStyleSave *)
 0000:000E4620       TStyleSave::TStyleSave((void))
 0000:000E46FC       TStyleSave::~TStyleSave((void))
 0000:000E4784       TStyleSave::LookupCache((void))
 0000:000E480C       TStyleSave::SetStyle((RefVar const &,TPoint const &,long))
 0000:000E50E0       FDrawShape
 0000:000E5130       TStyleSave::BeginLevel((SaveLevel *))
 0000:000E5158       TStyleSave::EndLevel((void))
 0000:000E51D0       SaveLevel::Init((SaveLevel *))
 0000:000E5674       HitShape(RefVar const &,TPoint const &,TPoint const &)
 0000:000E5E14       FOffsetRect
 0000:000E5E98       FRectsOverlap
 0000:000E5EF8       FMapPtX
 0000:000E5F88       FMapPtY
 0000:000E6014       FMapRect
 0000:000E6090       FSectRect
 0000:000E60F4       FUnionRect
 0000:000E6544       ToGlobalCoordinates__FRC6RefVarPsN32
 0000:000E7C84       FInsertStyledText
 0000:000E7ED0       GetGlobalRect__FP5TRectRC6RefVarN42
 0000:000E7FA0       FInvertRect
 0000:000E7FE8       FTextBox
 0000:000E8160       FTextBounds
 0000:000E8478       FRecognizePara
 0000:000E850C       NSSendProto__FRC6RefVarN51
 0000:000E867C       RegisterInterruptObject(InterruptObject *)
 0000:000E86D4       RegisterInterruptObject(InterruptObject *,InterruptObject **)
 0000:000E8834       RegisterL2InterruptObject(InterruptObject *,InterruptObject **)
 0000:000E88E4       RegisterAdditionalInterrupt(InterruptObject **,ulong,void *,long (*)(void *),void *)
 0000:000E8A60       RegisterInterrupt(InterruptObject **,ulong,void *,long (*)(void *),void *)
 0000:000E8B70       RegisterInterrupt(ulong,void *,long (*)(void *),void *)
 0000:000E8BE8       RegisterL2Interrupt(InterruptObject **,ulong,void *,long (*)(void *),void *,void *)
 0000:000E8D70       RegisterL2Interrupt__FUlPvPFPv_lT3T1
 0000:000E8E5C       RemoveInterrupt(InterruptObject *)
 0000:000E8EBC       DeregisterInterrupt(InterruptObject *)
 0000:000E8FA8       TAsyncSerTool::FlushOutputBytes((void))
 0000:000E9014       PCirrusBatteryDriver::PreliminaryCharge((void))
 0000:000E9138       UnhandledNonUserModeException(char *,void *,void (*)(void *))
 0000:000E9238       AddSecPerm(ulong,Perm)
 0000:000E9284       Reboot(long,ulong,uchar)
 0000:000E9514       HLevel2Handler(void *)
 0000:000E9590       WhichHandlerPresent(ulong)
 0000:000E95CC       IsHandlerPresent(ulong)
 0000:000E9830       GetDefaultHWLoc__14TUConfigServerFUlPUlT2
 0000:000E985C       GetDefaultConfig__14TUConfigServerFUlPcPUlT3
 0000:000E98B0       SetDefaultHWLoc__14TUConfigServerFUlN21
 0000:000E98DC       SetDefaultConfig__14TUConfigServerFUlPcN21
 0000:000E9940       RegisterULongName__14TUConfigServerFUlPcN21
 0000:000E9988       TUConfigServer::UnRegisterULongName((ulong,char *))
 0000:000E9A74       HWRMemoryLockHandle(ulong)
 0000:000E9D40       RegisterPackageWithDebugger(void *,ulong)
 0000:000E9D80       RegisterLoadedCodeWithDebugger(void *,char const *,ulong)
 0000:000E9DD0       DeregisterLoadedCodeWithDebugger(ulong)
 0000:000E9E04       InformDebuggerMemoryReloaded(void *,ulong)
 0000:000E9E98       PHammerInTranslator::Init((void *))
 0000:000E9F44       PStdioInTranslator::ProduceFrame((int))
 0000:000EA00C       PHammerOutTranslator::EnterBreakLoop((int))
 0000:000EA0C4       PHammerOutTranslator::Init((void *))
 0000:000EA160       PHammerOutTranslator::Prompt((int))
 0000:000EA180       PHammerOutTranslator::Flush((void))
 0000:000EA1C0       PHammerOutTranslator::Print((char const *,...))
 0000:000EA2DC       TSoupIndex::kfDeleteData((KeyField *,void *))
 0000:000EAAB0       LoadHighROMPackages(uchar)
 0000:000EB688       FIaAtWork
 0000:000EBB78       gTrie
 0000:000EBDCC       RemoveTrailingPunct__FRC6RefVarT1
 0000:000EBF58       TLink::PostRead((void))
 0000:000EBF90       SetStatus__FRC6RefVarN21
 0000:000EC1B0       InitKernelDomainAndEnvironment(void)
 0000:000EC29C       InitDomainsAndEnvironments(void)
 0000:000EC2E0       TAsyncDebugLink::Remove((void))
 0000:000ECD64       BuildEnvironments(void)
 0000:000ED3C0       InitTestAgent(void)
 0000:000EE30C       TInputStream::TInputStream((void))
 0000:000EE368       TStdioInputStream::UngetChar((ushort))
 0000:000EE62C       TStdioInputStream::GetChar((void))
 0000:000EEA78       TVoyagerPlatform::CheckForKeyboard((uchar))
 0000:000EEFF4       InitInternationalUtils(void)
 0000:000EF1EC       GetLocaleSlot(RefVar const &)
 0000:000EF504       PositiveIntProtoStr(void)
 0000:000EFA98       SetCurrentLocale(RefVar const &)
 0000:000EFC1C       FindLocaleBundleByName(RefVar const &)
 0000:000EFE10       ROMCacheLocaleAttributes(void)
 0000:000F0390       CacheLocaleAttributes(void)
 0000:000F03B8       ReplaceDictionaryHandle(char ***,RefVar const &)
 0000:000F0428       IntegerString(long,ushort *)
 0000:000F0510       _IntlNumberMunge__FPcPUsUcUlN24
 0000:000F0A58       NumberStringSpec__FdPUsUlT3
 0000:000F0BC4       NumberString(double,ushort *,ulong,char *)
 0000:000F1398       JournalReplayHandler::JournalReplayHandler((void))
 0000:000F13E8       JournalRecordAStroke(TStroke *)
 0000:000F1638       JournalInsertTabletSamople(void)
 0000:000F1714       FJournalStopRecord
 0000:000F178C       FJournalStartRecord
 0000:000F18E8       FJournalReplayAStroke
 0000:000F1A84       FJournalReplayALine
 0000:000F1F1C       FJournalReplayStrokes
 0000:000F2038       IsJournalReplayBusy(void)
 0000:000F2070       ContrastTempSample(void *,long,ulong)
 0000:000F20B4       InitStroke__20JournalReplayHandlerFUlT1
 0000:000F2194       PlayAStroke__20JournalReplayHandlerFP13JournalStrokeUlT2Uc
 0000:000F2260       JournalReplayHandler::IsJournalReplayBusy((void))
 0000:000F2438       JournalReplayHandler::ParseStrokeFileHeader((void))
 0000:000F2510       JournalReplayHandler::GetNextStroke((void))
 0000:000F259C       InitGlobalWorld(void)
 0000:000F2648       TClassInfoRegistryImpl::New((void))
 0000:000F286C       QuickEnableInterrupt
 0000:000F28D4       HandleReply__13TKeyboardToolFUlT1
 0000:000F2B80       TKeyboardTool::CancelAutoKey((void))
 0000:000F30B8       TVisKeyIterator::CopyInto((TVisKeyIterator *))
 0000:000F3198       TVisKeyIterator::SkipToStartOfNextRow((void))
 0000:000F33A8       TVisKeyIterator::LoadRow((void))
 0000:000F35D4       TVisKeyIterator::FindEnclosingKey((TPoint))
 0000:000F3714       TMonthView::DerivedFrom(const(long))
 0000:000F3748       TKeyboardView::Constructor((RefVar const &,TView *))
 0000:000F3B5C       Aligned__6TPointCFRC6TPointT1
 0000:000F47BC       GetKeyReceiver__FRC6RefVarT1
 0000:000F47E4       TKeyboardView::PostKeypressCommands((RefVar const &))
 0000:000F48C4       TKeyboardView::HandleKeyPress((TVisKeyIterator &,RefVar const &))
 0000:000F5650       TRawKeyIterator::LoadRow((void))
 0000:000F5788       TVisKeyIterator::Reset((void))
 0000:000F5950       TLinkMgr::DetachProtocol((TAppleTalkMessage *))
 0000:000F5C90       TLinkMgr::GetAddress((TAppleTalkMessage *))
 0000:000F5E90       TLinkMgr::ATLKShutDown((TAppleTalkMessage *))
 0000:000F5FE4       TView::RemoveHilite((RefVar const &))
 0000:000F6284       TLink::~TLink((void))
 0000:000F631C       TranslatePowerEvent(ulong)
 0000:000F653C       TLink::Activate((void))
 0000:000F6574       New__18TClassInfoRegistrySFPCc
 0000:000F6598       StretchBits__FP8PixelMapT1P4RectT3lPP6RegionN26
 0000:000F65FC       AdapterInHandler__20PCirrusBatteryDriverSFPv
 0000:000F6700       TLink::AcquireNodeAddress((TAcquireNodeAddress *))
 0000:000F6764       SetNetwork__5TLinkFUlT1
 0000:000F680C       TLink::GetZoneName((TGetZoneNameReply *))
 0000:000F6830       TLink::SetZoneName((TSetZoneNameMessage *))
 0000:000F6C04       CompressBlock__13TLZCompressorFPUlPvUlT2T3
 0000:000F6EA4       codeword_gen_bin__13TLZCompressorFlN21PUcUl
 0000:000F73A4       TLZCallbackCompressor::Delete((void))
 0000:000F73D8       TLZCompressor::New((void))
 0000:000F7424       TLZCallbackCompressor::Init((void *))
 0000:000F74C0       TLZCallbackCompressor::WriteChunk((void *,long))
 0000:000F7598       TLZCallbackCompressor::Flush((void))
 0000:000F7608       InitializeCompression(void)
 0000:000F7688       CompressChunk__13TLZCompressorFPUlPvUlT2T3
 0000:000F77C4       Compress__13TLZCompressorFPUlPvUlT2T3
 0000:000F7838       TLZCompressor::EstimatedCompressedSize((void *,ulong))
 0000:000F793C       TLZDecompressor::decode_lit_len_bin((void))
 0000:000F7A28       TLZDecompressor::decode_copy_length_bin_huff4((void))
 0000:000F7A78       LZCopyBits
 0000:000F7A7C       CopyValue
 0000:000F7C18       DecompressBlock__15TLZDecompressorFPUlPvUlT2T3
 0000:000F7E2C       DecompressChunk__15TLZDecompressorFPUlPvUlT2T3
 0000:000F7F64       FLBAllocCompressed
 0000:000F8288       FLBClearCache
 0000:000F8384       LoadLargeBinary(TStoreWrapper *,ulong,long)
 0000:000F8480       DuplicateLargeBinary(RefVar const &,TStoreWrapper *)
 0000:000F86AC       LBDataPtr(char *)
 0000:000F8714       FinalizeLargeObjectWrites__FP13TStoreWrapperP13CDynamicArrayT2
 0000:000F8AEC       FGetBinaryStore
 0000:000F8B38       FGetBinaryCompander
 0000:000F8CA8       FGetBinaryStoredSize
 0000:000F8EB0       LBData::SetStore((TStoreWrapper *))
 0000:000F900C       InitLargeObjects(void)
 0000:000F9070       AllocateLargeBinary__FRC6RefVarlT2P13TStoreWrapper
 0000:000F90EC       IsLargeBinary(RefVar const &)
 0000:000F92E4       LBSetClass(char *,RefVar const &)
 0000:000F939C       exStoreError
 0000:000F9440       Create__15TLOPackageStoreFPUlP6TStoreP5CPipelUcPcPvT4P11TLOCallback
 0000:000F953C       CreateFromCompressed__15TLOPackageStoreFPUlP6TStoreP5CPipelUcPcPvT4P11TLOCallback
 0000:000F95E4       TLOPackageStore::Backup((CPipe *,TStore *,ulong,uchar,TLOCallback *))
 0000:000F9620       LOCompanderParameters(TStore *,ulong,void *)
 0000:000F96B4       InitializeChunkArray(TStore *,ulong *,ulong)
 0000:000F97A0       FillChunkArray__FP6TStoreUlT2P5CPipeT2PcT2P11TLOCallback
 0000:000F9A70       LODefaultCreate(ulong *,TStore *,CPipe *,long,uchar,char *,void *,uchar,TLOCallback *)
 0000:000F9CB4       FillChunkArrayCompressed(TStore *,ulong,CPipe *,long,TLOCallback *)
 0000:000F9F1C       LODefCreateFromComp(ulong *,TStore *,CPipe *,long,uchar,char *,void *,uchar,TLOCallback *)
 0000:000FA1BC       LODefaultDuplicate(ulong *,TStore *,ulong,ulong)
 0000:000FA2BC       LODefaultStorageSize(TStore *,ulong)
 0000:000FA398       LOCompanderNameStrLen(TStore *,ulong,long *)
 0000:000FA3F8       LODefaultStreamSize(TStore *,ulong,uchar)
 0000:000FA504       LODefaultBackup(CPipe *,TStore *,ulong,uchar,TLOCallback *)
 0000:000FAB04       LOCompanderName(TStore *,ulong,char *)
 0000:000FABA0       LOCompanderName(char **,TStore *,ulong)
 0000:000FAC20       LOSizeOfStream(TStore *,ulong,uchar)
 0000:000FAD28       LOWrite(CPipe *,TStore *,ulong,uchar,TLOCallback *)
 0000:000FAE4C       CreateLargeObject(ulong *,TStore *,long,char *,void *,char *)
 0000:000FAE94       UnmapLargeObject(ulong)
 0000:000FAEB8       UnmapLargeObject(TStore **,ulong *,ulong)
 0000:000FAF28       AbortObject(TStore *,ulong)
 0000:000FAFE4       FlushPackageCache(ulong)
 0000:000FB03C       AbortObjects(TStore *)
 0000:000FB094       CommitObject(ulong)
 0000:000FB0EC       VAddrToStore(TStore **,ulong *,ulong)
 0000:000FB15C       VAddrToId(ulong *,ulong)
 0000:000FB1C8       IsOnStoreAsPackage(ulong)
 0000:000FB200       IsOnStoreAsPackage(TStore *,ulong)
 0000:000FB280       ObjectSize(ulong)
 0000:000FB35C       DuplicateLargeObject(ulong *,TStore *,ulong,ulong)
 0000:000FB3E8       LargeObjectAddressIsValid(ulong)
 0000:000FB464       TUObject::MakeObject((ObjectTypes,ObjectMessage *,ulong))
 0000:000FB4C4       StoreToVAddr(ulong *,TStore *,ulong)
 0000:000FB528       GetLargeObjectInfo(RDMParams *,ulong)
 0000:000FB580       StorageSizeOfLargeObject(ulong)
 0000:000FB5BC       CreateLargeObject(ulong *,TStore *,CPipe *,long,uchar,char *,void *,uchar,TLOCallback *,char *)
 0000:000FB728       FlushLargeObject(TStore *,ulong)
 0000:000FB79C       StorageSizeOfLargeObject(TStore *,ulong)
 0000:000FB840       ResizeLargeObject__FPUlUllT3
 0000:000FB8A4       LargeObjectIsDirty(ulong)
 0000:000FB908       GetLOAllocator(TStore *,ulong,TLrgObjStore **)
 0000:000FB9C8       LODeleteByProtocol(TStore *,ulong)
 0000:000FBA28       DeleteLargeObject(TStore *,ulong)
 0000:000FBA78       DeleteLargeObject(ulong)
 0000:000FBAAC       MapLargeObject(ulong *,TStore *,ulong,uchar)
 0000:000FBB44       VAddrToBase(ulong *,ulong)
 0000:000FBBB8       TLaserWriterLSDriver::Close((void))
 0000:000FBBE8       TLaserWriterLSDriver::ClosePage((void))
 0000:000FBC2C       TLaserWriterLSDriver::ConnectToPrinter((void))
 0000:000FBC68       TLaserWriterLSDriver::ContinueIO((void))
 0000:000FBCA8       TLaserWriterLSDriver::ContinueRendering((void))
 0000:000FBCF0       TLaserWriterLSDriver::DoGetControllerStatus((void))
 0000:000FBD2C       TLaserWriterLSDriver::DoHandleProblem((long))
 0000:000FBE40       TLaserWriterLSDriver::DoorOpen((void))
 0000:000FC00C       TLaserWriterLSDriver::FlushBuffer((void))
 0000:000FC0F4       TLaserWriterLSDriver::GetControllerStatus((char &))
 0000:000FC12C       TLaserWriterLSDriver::GetEngineRegister((long))
 0000:000FC1FC       TLaserWriterLSDriver::GetMinimalStatus((void))
 0000:000FC248       TLaserWriterLSDriver::GetPageInfo((PrPageInfo *))
 0000:000FC310       TLaserWriterLSDriver::GetStatus((uchar))
 0000:000FC3B4       TLaserWriterLSDriver::GetStatusRegister0((void))
 0000:000FC3F8       TLaserWriterLSDriver::GetStatusRegister1((uchar,char *))
 0000:000FC4C0       TLaserWriterLSDriver::GetStatusRegister2((void))
 0000:000FC514       TLaserWriterLSDriver::GetStatusRegister3((void))
 0000:000FC588       TLaserWriterLSDriver::GetStatusRegister18((void))
 0000:000FC5E0       TLaserWriterLSDriver::GetStatusRegister21((void))
 0000:000FC630       TLaserWriterLSDriver::ImageBand((PixelMap *,Rect const *))
 0000:000FC6C8       TLaserWriterLSDriver::InitializeConnection((void))
 0000:000FC92C       TLaserWriterLSDriver::IsProblemResolved((void))
 0000:000FC9C0       TLaserWriterLSDriver::Jammed((void))
 0000:000FCA6C       TLaserWriterLSDriver::NoPaperTray((void))
 0000:000FCAD0       TLaserWriterLSDriver::Open((void))
 0000:000FCBBC       TLaserWriterLSDriver::OutOfPaper((void))
 0000:000FCC28       TLaserWriterLSDriver::PreparePrinter((void))
 0000:000FCCB0       TLaserWriterLSDriver::CassettePaperMatches((void))
 0000:000FCD4C       TLaserWriterLSDriver::PrinterCanPrint((uchar))
 0000:000FCDB8       TLaserWriterLSDriver::PrintPage((uchar))
 0000:000FCF88       TLaserWriterLSDriver::ResetBuffer((void))
 0000:000FCFB8       TLaserWriterLSDriver::ResetPrinter((uchar))
 0000:000FD04C       TLaserWriterLSDriver::ScanlineLoop((PixelMap *,Rect const *,char *))
 0000:000FD210       TLaserWriterLSDriver::SelectTray((void))
 0000:000FD248       TLaserWriterLSDriver::Send((char *,long))
 0000:000FD29C       TLaserWriterLSDriver::SendBlankLines((Rect const *))
 0000:000FD3D4       SendCommand__20TLaserWriterLSDriverFlT1
 0000:000FD414       TLaserWriterLSDriver::SendData((char *,long))
 0000:000FD464       TLaserWriterLSDriver::SendEndOfPage((void))
 0000:000FD4A4       TLaserWriterLSDriver::SetLeftMargin((void))
 0000:000FD4FC       TLaserWriterLSDriver::SetPaperSize((void))
 0000:000FD590       TLaserWriterLSDriver::SetScanlineWidth((void))
 0000:000FD60C       TLaserWriterLSDriver::SetState((void))
 0000:000FD654       TLaserWriterLSDriver::SetTopMargin((void))
 0000:000FD6AC       TLaserWriterLSDriver::TestAndProcessPrinterBreak((uchar))
 0000:000FD76C       TLaserWriterLSDriver::WrongPaperTray((void))
 0000:000FD7CC       TLaserWriterLSDriver::CleanupPrinter((void))
 0000:000FDCF4       TabADCEntry
 0000:000FDCF8       _fflush
 0000:000FDD08       __filbuf
 0000:000FDD5C       _deferredlazyseek
 0000:000FDDC4       SetPGTLARAddr
 0000:000FDEB4       Write__12TFlashDriverFUlN21R11TFlashRange
 0000:000FDF24       getc
 0000:000FDFF4       raw4
 0000:000FE960       FetchReallyUnalignedWord(char *)
 0000:000FF2B4       DoWrite__15T8BitFlashRangeFUlT1Pc
 0000:000FF384       TFlashDriver::ReportWriteResult((TFlashRange &,ulong))
 0000:000FF66C       BeginWrite__12TFlashDriverFR11TFlashRangeUlT2
 0000:000FFCA4       DoWrite__16T32BitFlashRangeFUlT1Pc
 0000:000FFD60       DoWrite__16T16BitFlashRangeFUlT1Pc
 0000:000FFF88       GetBankInfo__FUlT1
 0000:0010020C       UnlockSubPagesBetween__13TStackManagerFP10TStackInfoUlT2
 0000:00100F64       BookClosed
 0000:00101010       TLibrarian::BookRemoved((RefVar const &))
 0000:00101958       CurrentKiosk
 0000:00101DCC       ExtractWords__FPUsPlT2
 0000:00102DDC       FindContentByValue__10TLibrarianFRC6RefVarN31
 0000:001030BC       TLibrarian::DerivedFrom(const(long))
 0000:001033F4       FindPageByContent
 0000:001039A0       FindPageByValue__10TLibrarianFRC6RefVarN31
 0000:001045B4       PrepBook
 0000:001046E8       RegisterBookRef
 0000:00104998       AddInkMarks
 0000:00104C24       TextSearch__10TLibrarianFPUslT1PlT2T4
 0000:00104DF8       UnregisterBookRef
 0000:00105408       TBookPartHandler::Expand((void *,CPipe *,PartInfo *))
 0000:001057DC       CPackageArchivalPipe::Underflow((long,uchar &))
 0000:001059B0       Init__20CPackageArchivalPipeFRC6RefVarT1UcT3
 0000:00105B48       CPackageArchivalPipe::MakeNewPackageChunk((long))
 0000:00105BC4       CPackageArchivalPipe::UpdateKeyList((RefVar const &))
 0000:00105D14       CPackageArchivalPipe::Overflow((void))
 0000:00105EC4       LineLoop::SkipLeadingTabs((void))
 0000:00106008       LineLoop::CurrentLineFitsInBounds((void))
 0000:0010604C       GetPseudoSpacing__8LineLoopFlT1
 0000:001060A4       InitializeTextOptions(TextOptions *,ulong,short,short)
 0000:00106100       LineLoop::LineLoop((TParagraphView *,long **,StyleRecord **,short *))
 0000:00106424       AddNextLine__8LineLoopFPlN41P5TRect
 0000:00106650       SetSelection__9TEditViewFRC6RefVarPlT2
 0000:001075B8       DrawTopicMarker__9TListViewFlT1s
 0000:00107748       TListView::DropRemove((RefVar const &))
 0000:0010782C       TListView::FindDropView((TDragInfo const &,TPoint const &))
 0000:00107948       TListView::GadgetWidth((void))
 0000:00107E78       TListView::IndexFromY((long))
 0000:001081A4       PointToCaret__9TListViewFR6TPointP5TRectT2
 0000:00108750       TListView::RealDraw((TRect &))
 0000:00108A38       TEditView::Scrub((TUnitPublic *))
 0000:001092D4       TListView::TopicIndexToView((long))
 0000:00109388       TListView::TrackCheck((RefVar const &,long))
 0000:00109690       TPolygonView::ScrubSegment((TRect const &,uchar))
 0000:00109DDC       FAdjustParagraph
 0000:00109E9C       FChildTemplateFromTopic
 0000:0010A488       GetPowerPlantStatus(ulong,PowerPlantStatus *)
 0000:0010AF0C       FIsCollapsed
 0000:0010B520       TListView::DerivedFrom(const(long))
 0000:0010B888       TListView::DrawHilitedData((void))
 0000:0010BA5C       CList::GetIdentityIndex((void *))
 0000:0010BBA8       CList::At((long))
 0000:0010BBE8       CList::Remove((void *))
 0000:0010BC74       Replace__5CListFPvT1
 0000:0010BDD4       AddPoint__10TLiveInkerFC5PointT1
 0000:0010C358       TCHMemModem::EmergencyShutdown((void))
 0000:0010CA84       TLocalTalkTool::DoOutput((void))
 0000:0010CB58       TLocalTalkTool::KillPut((void))
 0000:0010CCC4       TLocalTalkTool::ConnectStart((void))
 0000:0010CD48       DoControl__14TLocalTalkToolFUlT1
 0000:0010CE78       TLocalTalkTool::AllocateBuffers((void))
 0000:0010CF74       TLocalTalkTool::DeallocateBuffers((void))
 0000:0010CFB8       TLocalTalkTool::TurnOnSerChip((void))
 0000:0010D074       TLocalTalkTool::TurnOffSerChip((void))
 0000:0010D0A8       TLocalTalkTool::ResetStats((void))
 0000:0010D0DC       TLocalTalkTool::GetRandomNodeID((void))
 0000:0010D124       PCirrusSoundDriver::SyncOutputBits((void))
 0000:0010D208       TLocalTalkTool::TransmitStateMachine((TLocalTalkTool::TransmitEvent))
 0000:0010D800       TLocalTalkTool::TaskConstructor((void))
 0000:0010D888       TLocalTalkTool::DelayLinkIsFree((ulong))
 0000:0010D8F0       TLocalTalkTool::ReceiverErrorReset((void))
 0000:0010D938       TLocalTalkTool::StopReadDataPacket((void))
 0000:0010D964       TLocalTalkTool::SetAbortIntEnable((uchar))
 0000:0010D97C       TLocalTalkTool::ExtStatusInt((void))
 0000:0010DA18       TLocalTalkTool::RxDMAPacketInterrupt((ulong))
 0000:0010DFA4       ProcessOptionStart__14TLocalTalkToolFP7TOptionUlT2
 0000:0010E2A4       TNBPLookupManager::TNBPLookupManager((void))
 0000:0010E410       TNBPLookupManager::Lookup((TNBPLookup *,TNBP *,uchar))
 0000:0010E678       TNBPLookupManager::LookupForRegister((TLookupNamesRegisteringMessage *,TNBP *,uchar *))
 0000:0010E7FC       TNBPLookupManager::Cancel((ulong))
 0000:0010E954       CreateNewLookup__17TNBPLookupManagerF10LookupTypeUlR13TNBPRetryInfoRC11TCompletionR8TAddressR14TNBPEntityNameT2
 0000:0010E9E8       TNBPLookupManager::CompleteLookup((TNBPLookup *,long))
 0000:0010EB08       TNBPLookupManager::UpdateBuffer((TNBPUpdateBuffer *))
 0000:0010EF24       TXmitBufDscrptr::TXmitBufDscrptr((void))
 0000:0010EFE8       ad_frq_decode(TMNPClass5Vars *)
 0000:0010F2A0       ad_frq_xmt(TMNPClass5Vars *)
 0000:0010F490       MNPC5CompressHook(TMNPClass5Vars *,uchar)
 0000:0010F4E8       MNPC5FlushHook(TMNPClass5Vars *,uchar)
 0000:0010F5A0       MNPC5Open(TMNPClass5Vars **)
 0000:0010FC48       TMNP::CancelXmit((void))
 0000:0010FC7C       TMNP::CancelXmitAbortTimer((void))
 0000:0010FCA0       TMNP::CancelRcv((void))
 0000:00110D58       TMNP::RcvInit((void))
 0000:0011107C       TMNP::RcvBuffer((void))
 0000:001112B8       TMNP::RcvFrameComplete((long,uchar))
 0000:00111620       TMNP::RcvLD((void))
 0000:00111A88       TMNP::RcvLA((void))
 0000:00111C84       TMNP::XmitLR((void))
 0000:00112524       TMNP::XmitLA((ulong))
 0000:001127F0       TMNP::XmitStartBuffer((void))
 0000:00112860       TMNP::XmitInitBuffer((TXmitBufDscrptr *))
 0000:00112900       TMNP::XmitBufferLT((void))
 0000:00112E24       TMNP::OpenAlloc((void))
 0000:00112F70       TMNP::ConnectStart((void))
 0000:00112FD0       TMNP::ListenStart((void))
 0000:00113760       TMNP::HandleTickTimer((void))
 0000:001138A4       TMNP_CCB::Init((void))
 0000:00113DFC       NamePtr(char *,ulong)
 0000:00113E44       _rintP
 0000:00113EBC       _rintM
 0000:00113EDC       GetPowerPlantCount(void)
 0000:00113F54       GetRawPowerPlantStatus(ulong,PowerPlantStatus *)
 0000:00113F98       TMathLineView::DerivedFrom(const(long))
 0000:00114038       TMathOpView::RealDraw((TRect &))
 0000:00114164       SetBatteryType__FUlT1
 0000:001141A8       TMathOpView::DerivedFrom(const(long))
 0000:001141E4       TMathLineView::Constructor((RefVar const &,TView *))
 0000:00114864       TMathExpView::DerivedFrom(const(long))
 0000:001149F4       TMathExpView::HandleScrub((TRect const &,long,TUnitPublic *,uchar))
 0000:00114B40       GetPhys(ulong,TPhys *&)
 0000:00114D30       InvalidatePhys(ulong)
 0000:00114DF0       ChangeVirtualMapping__FUlN2115EPhysChangeType
 0000:00114E3C       TLSAPConn::AssignId((ulong))
 0000:00114ED8       PhysSize(ulong)
 0000:00114F14       PhysBase(ulong)
 0000:00114F48       PhysAlign(ulong)
 0000:00114FC8       ForgetPhysMapping__FUlN21
 0000:0011501C       ForgetPhysMapping(void)
 0000:00115090       TIrGlue::ListenStart((CBuffer *))
 0000:001150F8       ConnectStart__7TIrGlueFUlT1P7CBuffer
 0000:001153EC       CMemObject::Destroy((void))
 0000:001155E0       GetKernelDomainHeapSize
 0000:001155E8       InitMemArchCore(void)
 0000:001157EC       GetPersistentRef__13MemObjManagerSFUlPP17PersistentDBEntryPl
 0000:00115B28       RegisterPersistentNewEntry__13MemObjManagerSFUlP17PersistentDBEntry
 0000:00116020       GetEnvironmentInfo__13MemObjManagerSFUlP15EnvironmentInfoPl
 0000:001160CC       GetTabletCalibrationDataSWI(void)
 0000:00116144       ResetRebootReason
 0000:001161DC       GetEnvDomainName__13MemObjManagerSFUlT1PUlPUcPl
 0000:0011629C       FindEntryByIndex__13MemObjManagerSF10MemObjTypeUlPvPl
 0000:00116344       FindEntryByName__13MemObjManagerSF10MemObjTypeUlPv
 0000:00116400       RegisterEntryByName__13MemObjManagerSF10MemObjTypeUlPv
 0000:0011646C       PrimGetMemObjInfo(void)
 0000:001167BC       DomainInfo::IsHunkOMemory((void))
 0000:001168A8       NewPersistentVMHeap
 0000:00116940       SetNetworkPersistentInfo(ulong)
 0000:00116998       GetNetworkPersistentInfo(ulong *)
 0000:00116A2C       RegisterPatch__FPvUlT2l
 0000:00116AA8       GetPatchInfo__FPUlT1
 0000:00116C18       ComputeRAMLimit
 0000:00116DA8       InternalRAMInfo
 0000:00116F18       Init__13TMemoryObjectFUlUcT1
 0000:00117190       InitSpecialStacks
 0000:001171DC       ZeroPhysPage(ulong)
 0000:0011720C       RememberMappingUsingPAddr
 0000:0011726C       InitKernelHeapArea
 0000:001172CC       MapTable__FUlT1
 0000:00117310       SizeTable__FUlT1
 0000:0011734C       MapInKernelGlobals
 0000:00117430       BuildPatchTablePageTable(ulong,long)
 0000:001174E4       gROMPublicJumpTablePageTable
 0000:001174E8       TClassInfoRegistryImpl::HashString(const(char const *))
 0000:00117544       GetKernelDomainHeapBase
 0000:0011754C       TClassInfoRegistryImpl::InvalidateSatisfyCache((void))
 0000:00117584       UseROMJumpTables(void)
 0000:00117614       gROMPatchTablePageTable
 0000:00117654       MakeTemporaryMapArea(void)
 0000:001176A8       ForgetTemporaryMapArea(void)
 0000:001176B4       ChangeVRangeAccessibility__FUlN3115EPhysChangeType
 0000:0011788C       VMemInit(void)
 0000:00117B80       TClassInfoRegistryImpl::Register((TClassInfo const *,ulong))
 0000:00117E60       PersistentRecovery
 0000:0011808C       GetPhysPage
 0000:001180D4       Init__9TRAMTableSFP9SBankInfo
 0000:0011810C       Add__9TRAMTableSFP9SBankInfoT1
 0000:00118164       Remove__9TRAMTableSFUlT116EBankDesignationT1
 0000:00118408       GetPPage__9TRAMTableSFUlP9SBankInfo
 0000:0011849C       GetPPageWithTag__9TRAMTableSFUl
 0000:001184E8       GetKernelGlobalsPageIndex
 0000:001185B8       GetContiguousMemory__FP6TUPhysUlT2UcT4
 0000:001185FC       SafeShortTimerDelay
 0000:00118648       SetRebootReason
 0000:0011868C       AreGlobalsInitialized
 0000:001186B0       GetPrimaryTablePhysBaseAfterGlobalsInitied
 0000:001186C0       SetGlobalsInitialized
 0000:00118700       PrimLastRExConfigEntry
 0000:0011873C       PrimRExConfigEntry
 0000:001187E4       GetRExConfigEntry
 0000:00118818       GetTaskStackInfo__FRC6TUTaskRUlT2
 0000:00118858       GetPrimaryTablePhysBase
 0000:00118860       GetPrimaryTablePhysBaseMMUOff
 0000:0011886C       GetPatchDomainBase
 0000:00118874       GetPatchDomainSize
 0000:001189CC       TMessageTimer::Stop((void))
 0000:00118AEC       InitToolbox
 0000:00118CA4       TCMOModemProfile::TCMOModemProfile((ulong))
 0000:00118CEC       TCMOModemProfile::SetDefault((ulong))
 0000:00118DB4       SetModemStrings__16TCMOModemProfileFPCUcN51
 0000:00119230       TMonitor::TMonitor((void))
 0000:00119298       TMonitor::Release((long))
 0000:001193C8       TMonitor::FlushTasksOnMonitor((void))
 0000:00119410       MonitorDispatchKernelGlue
 0000:001194E4       MonitorExitKernelGlue
 0000:00119528       MonitorThrowKernelGlue
 0000:001195F8       MonitorFlushKernelGlue
 0000:00119640       GetFaultState(TProcessorState *)
 0000:00119670       SetFaultState(TProcessorState *)
 0000:0011983C       TMonitor::Suspend((ulong))
 0000:001198CC       TMonitor::DeleteTaskOnMonitorQ((TTask *))
 0000:001198F4       TMonitor::SetUpEntry((TTask *))
 0000:00119A30       TMonitor::Aquire((void))
 0000:00119DA0       TMonthView::DrawDates((void))
 0000:00119F84       TMonthView::RealDoCommand((RefVar const &))
 0000:00119FF0       TMonthView::HandleClick((TStrokePublic *))
 0000:0011A3A0       UpdateFrame__10TMonthViewFlT1
 0000:0011A4B4       UpdateRangeRect__10TMonthViewFlT1
 0000:0011A7C8       ResourceUnclaim__12TUNameServerFPcT1
 0000:0011A810       TMonthView::PointToDate((TPoint &))
 0000:0011A9B4       ResourcePassiveUnclaim__12TUNameServerFPcT1
 0000:0011AA5C       EveryDayString(long,ushort *)
 0000:0011ACCC       WeekInMonthString(long,ushort *)
 0000:0011AE94       TOutline::DerivedFrom(const(long))
 0000:0011B0A4       WeekInYearString(long,ushort *)
 0000:0011B270       FRepeatInfoToText__FRC6RefVarN31
 0000:0011B714       TMonthView::RealDraw((TRect &))
 0000:0011BD9C       TMonthView::DrawMonthOverView((void))
 0000:0011CA04       GetStoreClassInfo(TStore const *)
 0000:0011D25C       TMuxStore::OwnsObject((ulong))
 0000:0011D2EC       TMuxStore::SetStore((TStore *,ulong))
 0000:0011D3AC       TMuxStore::NewWithinTransaction((long,ulong *))
 0000:0011D438       TMuxStore::StartTransactionAgainst((ulong))
 0000:0011D4BC       TMuxStore::SeparatelyAbort((ulong))
 0000:0011D540       TMuxStore::AddToCurrentTransaction((ulong))
 0000:0011D63C       TMuxStore::LockReadOnly((void))
 0000:0011D6CC       TMuxStore::NewObject((char *,long,ulong *))
 0000:0011D760       TMuxStore::ReplaceObject((ulong,char *,long))
 0000:0011D7F4       CalcXIPObjectSize__9TMuxStoreFlT1Pl
 0000:0011D888       TMuxStore::NewXIPObject((long,ulong *))
 0000:0011D914       GetXIPObjectInfo__9TMuxStoreFUlPUlN22
 0000:0011D9C8       TMuxStore::Delete((void))
 0000:0011DD34       TNewInternalFlash::SearchForFlashDrivers((void))
 0000:0011DDF4       TMuxTool::OpenConnectionEnd((void))
 0000:0011DEF0       TMuxTool::OpenConnectionEndComplete((long,TConnectionEnd *,ulong))
 0000:0011DF5C       IOPowerOff(ulong)
 0000:0011DFB0       IOPowerOffAll(void)
 0000:0011E15C       TMuxTool::CompleteRequest((TUMsgToken &,long))
 0000:0011E4F8       TMuxTool::TaskConstructor((void))
 0000:0011E580       TMuxTool::TaskDestructor((void))
 0000:0011E5D0       TMuxTool::TaskMain((void))
 0000:0011E8A8       Decomp
 0000:0011EB58       Solve
 0000:0011ED28       TNBPEntityName::TNBPEntityName((void))
 0000:0011EEB8       TNBPEntityName::FormFromEntityName((ulong))
 0000:0011F0E4       TNBPEntityName::StreamOut((uchar *))
 0000:0011F2C4       TNBPRetryInfo::CalculateDuration((ulong))
 0000:0011F518       Init__22TNBPLookupEventHandlerFUlT1
 0000:0011F5CC       TLookupNames::Close((void))
 0000:0011F6C8       LookupNamesAsyncFromTask__12TLookupNamesFPUsUlP6TUPortUcN32
 0000:0011F81C       LookupNamesAsync__12TLookupNamesFPUsUlUcT2P16TLookupRetryInfo
 0000:0011F89C       LookupNames__12TLookupNamesFPUsUlUcT2P16TLookupRetryInfo
 0000:0011F94C       TLookupNames::CleanUp((void))
 0000:0011FA4C       TLookupNames::GetName((TNBPName &,ulong))
 0000:00120054       TLookupNames::HandleLookupReply((TAppleTalkMessage *,TUMsgToken *))
 0000:00120204       TNBPLookupEventHandler::AETestEvent((TAEvent *))
 0000:00120530       TNBPName::TNBPName((void))
 0000:00120580       Set__8TNBPNameFR8TAddressR10TNBPStringN22
 0000:00120650       TNBPReplyBuffer::Init((ushort *,ulong,uchar))
 0000:00120724       TNBPReplyBuffer::ConstantPart((ushort *))
 0000:001207B8       TNBPReplyBuffer::Ith((TNBPReplyItem *,ulong))
 0000:001209A0       TNBPReplyBuffer::InsertLookupTuples((uchar,CRingBuffer *,ulong))
 0000:00120D14       TNBPReplyBuffer::TNBPReplyBuffer((void))
 0000:00121420       TNBP::NBPUnRegister((TAppleTalkMessage *))
 0000:001214AC       TNBP::Cancel((TAppleTalkMessage *))
 0000:00121514       TNBP::ATLKOpen((TAppleTalkMessage *))
 0000:001216CC       TNBPTupleHeader::TNBPTupleHeader((void))
 0000:00121824       TNBP::Init((void))
 0000:00121874       TNBP::DoCommand((TUMsgToken *,ulong *,TAppleTalkMessage *))
 0000:00121AB8       ArrayRemove__FRC6RefVarN21
 0000:00121C5C       ArrayIsEmpty(RefVar const &)
 0000:00121C88       ArrayGrowAt__FRC6RefVarlT2
 0000:00121D28       ArrayInsertAt(RefVar const &,long,long)
 0000:00121D64       RunsDelete__FRC6RefVarlT2
 0000:00121E64       RunsInsert__FRC6RefVarlT2
 0000:00122000       FromObject(RefVar const &,short &)
 0000:00122194       RefToAddress(long)
 0000:001221B8       StrHexDump__FRC6RefVarT1
 0000:001223E0       TableLookup__FRC6RefVarT1
 0000:001224E4       ToObject(RefVar const &,char *,long)
 0000:0012255C       FromObject(RefVar const &,char *,long &,long)
 0000:00122818       StringObject(RefVar const &,ushort *,long &,long)
 0000:00122A50       SPrintObject(RefVar const &)
 0000:00122AE0       NTKInit(void)
 0000:00122C70       PNTKInTranslator::Init((void *))
 0000:00122F48       PNTKOutTranslator::StackTrace((void *))
 0000:00123084       PNTKOutTranslator::ConsumeFrameReally((RefVar const &))
 0000:00123130       PNTKOutTranslator::ConsumeExceptionFrame((RefVar const &,char *))
 0000:00123320       PNTKOutTranslator::Init((void *))
 0000:00123510       PNTKOutTranslator::Putc((int))
 0000:0012353C       CreateNTKOutTranslator(POutTranslator **,char *,TTaskSafeRingBuffer *)
 0000:001237DC       Init__7TNTKNubFP12TOptionArrayN21PcT4Uc
 0000:00123994       FPE_DeInstall
 0000:00123AAC       TNTKNub::StopListener((void))
 0000:00123F40       TNTKNub::HandleCodeBlock((ulong))
 0000:00124054       TNTKNub::DeletePackage((ulong))
 0000:001241E0       TNTKNub::SendTextHeader((ulong))
 0000:00124560       CreateNullInTranslator(PInTranslator **)
 0000:00124660       TNTKNub::SendExceptionData((char *,RefVar const &))
 0000:001246D8       SendExceptionData__7TNTKNubFPcT1
 0000:00124894       StringRefToHandle(RefVar const &,char ***)
 0000:00124AC4       CreateNub__FRC6RefVarN31
 0000:00124E48       CreateNullOutTranslator(POutTranslator **)
 0000:00124F50       FNTKSend
 0000:00125190       CreateHammerInTranslator(PInTranslator **)
 0000:00125304       TNTKTask::PreMain((void))
 0000:001254B8       Init__18TNTKEndpointClientFP12TOptionArrayN21P19TTaskSafeRingBufferT4lT6
 0000:001255C0       CreateHammerOutTranslator(POutTranslator **)
 0000:00125A00       TNTKEndpointClient::UnBindComplete((TEndpointEvent *))
 0000:00125A20       CreateSerialInTranslator(PInTranslator **,TTaskSafeRingBuffer *)
 0000:00125C08       CreateSerialOutTranslator(POutTranslator **,TTaskSafeRingBuffer *)
 0000:00125CB0       CreateNTKInTranslator(PInTranslator **,char *,TTaskSafeRingBuffer *)
 0000:001272F4       TNBPNameTable::Cancel((ulong))
 0000:0012736C       TNBPNameTable::Add((TNBPNameEntry *))
 0000:001273BC       TNBPNameTable::Remove((TNBPNameEntry &))
 0000:001274C8       TNBPNameTable::MatchFromTable((uchar &,TNBPNameEntry **,TNBPEntityName &))
 0000:001278C0       TNBPNameTable::AddPending((TRegisterPending *))
 0000:00127900       TNBPNameTable::RemovePending((ulong))
 0000:00127AF0       TNBPNameTable::NameInTable((TNBPNameEntry &))
 0000:00127B44       TNBPNameTable::RegisterName((TUMsgToken *,TRegisterNameMessage *,TNBP *))
 0000:00127D34       GetDropData__9TEditViewFRC6RefVarT1
 0000:00127E7C       TSerialChip16450::PowerOff((void))
 0000:00127F0C       TSerialChip16450::RemoveChipHandler((void *))
 0000:00127F64       TResArbitrationInfo::Init((TUPort *))
 0000:001280A0       BuildNameAndType__11TNameServerFUlT1
 0000:001281C4       Add__15TObjectNameListFPcT1UlT3
 0000:0012866C       Lookup__11TNameServerFPUlT1
 0000:001286C4       TNameServer::ResourceArbitration((TUMsgToken &,TResArbitrationRequest *))
 0000:001289CC       TSerialChip16450::ProcessOption((TOption *))
 0000:00128A28       FPE_DeInstall_0
 0000:00128A50       ResArbBuildResOwnerInfo__11TNameServerFRP13TResOwnerInfoUlT2
 0000:00128B44       Remove__15TObjectNameListFPcT1
 0000:00128D40       TNameServer::ResArbHandleReply((TResArbitrationInfo *))
 0000:00128E20       TNameServer::TaskConstructor((void))
 0000:001291D0       TUNameServer::TUNameServer((void))
 0000:00129C6C       EventMasterListItem::Init((void))
 0000:00129D50       RegisterForSystemEvent__11TNameServerFUlN31
 0000:0012A0DC       TSystemEvent::TSystemEvent((ulong))
 0000:0012A144       TXEditCommand::SaveRedoContainer((void))
 0000:0012A1DC       TXKeyCommand::RedoHilite((uchar))
 0000:0012A264       EndEdit__9TXDisplayFRC10TXEditInfolT2P8TXOffset
 0000:0012A490       TUGestalt::TUGestalt((void))
 0000:0012A4E0       Gestalt__9TUGestaltFUlPvT1
 0000:0012A500       TUGestalt::Gestalt((ulong,void *,ulong *))
 0000:0012ABAC       __ct__13TXOffsetRangeFRC8TXOffsetT1
 0000:0012AC34       OffsetBoundsRef(RefVar const &,TPoint const &)
 0000:0012AD34       IsRaw(RefVar const &)
 0000:0012AD78       TNewScriptEndpointClient::GetScriptDataOutXlator((void))
 0000:0012ADE8       exTranslatorException
 0000:0012AF58       CISNewInstantiate
 0000:0012AFBC       CISNewInstantiateFromEndpoint
 0000:0012B034       CISStreamIn
 0000:0012B0B4       exCommException
 0000:0012B1E8       TNewScriptEndpointClient::GetScriptDataInXlator((void))
 0000:0012B260       TNewScriptEndpointClient::ConvertToOptionArray((RefVar const &,TOptionArray *))
 0000:0012B388       TNewScriptEndpointClient::ConvertFromOptionArray((RefVar const &,TOptionArray *))
 0000:0012BC84       TNewScriptEndpointClient::PrepOptions((RefVar const &,TOptionArray **))
 0000:0012BD64       CommandComplete__24TNewScriptEndpointClientFlRC6RefVarT2
 0000:0012C388       DoOutput__24TNewScriptEndpointClientFRC6RefVarN21
 0000:0012C7A4       OutputRaw__24TNewScriptEndpointClientFRC6RefVarT1UcUlT4P12TOptionArray
 0000:0012C9A0       OutputFrame__24TNewScriptEndpointClientFRC6RefVarUcUlT3P12TOptionArray
 0000:0012D2F4       TNewScriptEndpointClient::ReadTermination((RefVar const &))
 0000:0012D870       TNewScriptEndpointClient::ReadFilter((RefVar const &))
 0000:0012E38C       TNewScriptEndpointClient::RcvComplete((TEndpointEvent *))
 0000:0012E514       TNewScriptEndpointClient::RawRcvComplete((TRcvCompleteEvent *))
 0000:0012E83C       TNewScriptEndpointClient::FilterRcvComplete((ulong))
 0000:0012EB28       TNewScriptEndpointClient::CheckForInput((long,uchar))
 0000:0012EC38       TNewScriptEndpointClient::CheckEndArray((uchar *))
 0000:0012F1EC       TNewScriptEndpointClient::IdleProc((TUMsgToken *,ulong *,TAEvent *))
 0000:0012F5CC       ParseInput__24TNewScriptEndpointClientF8FormTypelT2PUcRC6RefVarPl
 0000:0012F808       TNewScriptEndpointClient::DoFlushPartial((void))
 0000:0012FB74       CINewInstantiateFromEndpoint
 0000:0012FE68       CINewSetState
 0000:00130488       CINewInput
 0000:001304D4       CINewPartial
 0000:00130594       DoOption__24TNewScriptEndpointClientFRC6RefVarT1
 0000:00130B2C       TStreamingEndpointClient::ReadStreamParms((StreamRefParms *,uchar,RefVar const &,long))
 0000:00130D6C       TStreamingEndpointClient::DoStreamIn((RefVar const &,long &))
 0000:00130F14       DoStreamOut__24TStreamingEndpointClientFRC6RefVarT1
 0000:00131174       GetDataForm(RefVar const &,FormUser)
 0000:0013138C       CSGetDefaultConfig
 0000:00131484       FTranslate
 0000:00131AE8       CFDispose
 0000:00131F2C       CFRecord
 0000:00132060       InitConfigServer__15TNSConfigServerFRC6RefVarT1
 0000:00132134       TNSConfigServer::GetConfig((long *))
 0000:001321CC       TNSConfigServer::SetConfig((RefVar const &))
 0000:0013232C       InitTime
 0000:00132440       GetDomainInfo__13MemObjManagerSFUlP10DomainInfoPl
 0000:00132604       BlinkRect(Rect *,short)
 0000:0013285C       AddToChain(TDictChain **,dictListEntry *)
 0000:00132C74       ConfigureIOBank__17TNewInternalFlashFRUlN21
 0000:00133354       ReplaceLocalDictionary__F6RefVarT1
 0000:001336DC       InitRandomWords(void)
 0000:001336F8       RandomCommonWord__FPUsUlT2
 0000:00133830       ChooseWeightedChar(char *,ulong,uchar)
 0000:001338E0       GetRandomWord__FPP15AirusAParmBlockPUsUlT3
 0000:00133A48       FindDictionaryFrame(ulong)
 0000:00133BF0       AddLetterPairScore(char *)
 0000:00133C84       GetLetterPairScore(char *)
 0000:00133D10       GetDistributedWord__FPP15AirusAParmBlockPUsUlT3
 0000:00133F6C       FAirusUnregisterDictionary
 0000:00134184       ReplaceDictionary__F6RefVarT1
 0000:00134934       ReplaceDictionary(RefVar,ulong,char *,char *)
 0000:00134BDC       InkerPort(void)
 0000:00134D54       FGetCalibration(RefVar const &)
 0000:00134F8C       PackInkWordInfo__FP17PackedInkWordInfoUlN32lN22
 0000:00134FF0       GetInkWordFontSize(ulong)
 0000:00135050       ExpandPackedInkWordInfo(PackedInkWordInfo *,InkWordInfo *)
 0000:001351D0       HobbleTablet(void)
 0000:00135324       GetInkWordInfo(RefVar const &,InkWordInfo *)
 0000:00135350       ScaleStrokesForInkWord(TStroke **,TRect *)
 0000:001357EC       HandleInk(TEditView *,TStroke **)
 0000:00135910       AdjustInkWordXHeight(RefVar const &,uchar)
 0000:00135CB4       InkDraw__FRC6RefVarUllT3Uc
 0000:00135FC4       InkerOffUnHobbled(TRect *)
 0000:00136244       LoadInkerCalibration(void)
 0000:0013642C       ReportSmashedHeap(char *,long,void *)
 0000:00136488       ReallocPtr
 0000:0013672C       NewHandle
 0000:00136970       DisposHandle
 0000:00136BFC       GetHandleSize
 0000:00136D68       SetHandleSize
 0000:00136F78       HLock
 0000:00137094       HUnlock
 0000:001371D4       HSetState
 0000:00137264       HGetState
 0000:001372F8       NewFakeHandle
 0000:0013739C       IsFakeHandle
 0000:001373B4       HandToHand
 0000:001374B8       NewVMHeap
 0000:001375C8       Init__17PersistentDBEntryFUlUcT1
 0000:00137718       DeletePersistentVMHeap
 0000:001378B0       ReportMemMgrTrap(long)
 0000:00137920       DestroyVMHeapHelper(void *)
 0000:00137944       DestroyVMHeap
 0000:001379EC       NewHeapAt
 0000:00137B1C       ResurrectVMHeap
 0000:00137BC8       AddSemaphoreToHeap
 0000:00137CA4       ShrinkHeapLeaving
 0000:00137DAC       NewWiredPtr
 0000:00137FE4       NewPtr
 0000:0013828C       CountHeapBlocks
 0000:001383DC       DisposPtr
 0000:001386A8       __nw__8TxObjectSFUi
 0000:00138714       TxObject::DerivedFrom(const(long))
 0000:00138EB4       GetInkCommand(RefVar const &)
 0000:00139170       InstallWRecRecognizer(TRecognitionManager *)
 0000:0013944C       GetIDFromRef(RefVar const &)
 0000:001394B8       FUseWRec
 0000:00139534       LoadPlatformDriver(void)
 0000:0013958C       fwrite
 0000:001398D4       MakeGeneralShape(TUnitPublic *,PolygonShape *,TRect const &,long)
 0000:00139B1C       StrokeCentral::CurrentStroke((void))
 0000:00139B9C       IdleStrokes(void)
 0000:00139E2C       StrokeCentral::FlushStrokes((void))
 0000:0013A084       StrokeCentral::AddExpiredStroke((TStrokeUnit *))
 0000:0013A2E4       ExpireUsingCommand(TUnitPublic **)
 0000:0013A4D0       StrokeCentral::ExpireGroup((TUnitPublic **))
 0000:0013A88C       StrokeCentral::UpdateCompressGroup((FRect *))
 0000:0013AA94       TStrokePublic::TStrokePublic((TStroke *,uchar))
 0000:0013AB4C       TFlash::GetWriteProtected((uchar *))
 0000:0013AB58       Copy__6TFlashFUlN21
 0000:0013ABCC       TStrokePublic::Bounds((TRect *))
 0000:0013ACC8       TStrokePublic::FinalPoint((void))
 0000:0013ACFC       InkOff__13TStrokePublicFUcT1
 0000:0013ADE8       TStrokePublic::GetInkedRect((TRect *))
 0000:0013AE38       TStrokePublic::Invalidate((void))
 0000:0013AE84       StrokeCentral::SaveRecognitionState((uchar *))
 0000:0013B080       PrepStrokeForRecognition(TStroke *)
 0000:0013B168       TSerialChipVoyager::DCDInterrupt((void))
 0000:0013B174       NetPatternizerUpdateGraphics
 0000:0013B22C       AsPolygon(TStroke *)
 0000:0013B3D8       TSerialDMAEngine::StartRxDMA((ulong))
 0000:0013B41C       TARMNotebook::DerivedFrom(const(long))
 0000:0013B4DC       DrawSplashGraphic(uchar *,TRect)
 0000:0013B598       FDisplaySplashGraphic
 0000:0013B620       TNotebook::DrawSplashScreen((void))
 0000:0013C10C       TNotebook::DerivedFrom(const(long))
 0000:0013C174       P3InitPacket
 0000:0013C64C       DecimalStrToDouble(char *)
 0000:0013C6BC       TNumberParser::Reset((void))
 0000:0013C7D0       TNumberParser::SetInteger((char *))
 0000:0013D848       OsBoot
 0000:0013DA38       RExScanner
 0000:0013DA98       TObjRef::__as((TObjRef const &))
 0000:0013DB10       TObjRef::Delete((void))
 0000:0013DC0C       TObjRef::SetSeparateTranny((void))
 0000:0013DCEC       TObjRef::ClearSeparateTranny((void))
 0000:0013DD2C       TObjRef::ReWriteObjHeader((void))
 0000:0013DE88       TObjRef::CloneEmpty((int,ulong,TObjRef &,uchar))
 0000:0013DECC       TObjRef::CloneEmpty((int,TObjRef &,uchar))
 0000:0013DEF8       TObjRef::Clone((int,TObjRef &,uchar))
 0000:0013DF68       CopyTo__7TObjRefFR7TObjRefUlT2
 0000:0013E084       RegisterObject(TKernelObject *,KernelTypes,ulong,ulong *)
 0000:0013E1E4       ObjectScavenger(TKernelObject *,ulong)
 0000:0013E2B8       SetDomainFaultMonitor(ObjectMessage *,ulong,ulong)
 0000:0013E36C       SetEnvironment(ulong,ulong *)
 0000:0013E470       GetObjectContent(ObjectMessage *,ulong,ulong)
 0000:0013E7A4       ObjectAlloc__FP13ObjectMessageUlT2PUl
 0000:0013E880       GiveObject__FUlT1
 0000:0013E930       AcceptObject(ulong)
 0000:0013E9B8       InitObjectManager(void)
 0000:0013EFF0       ObjectDestroy__FP13ObjectMessageUlT2
 0000:0013F060       ObjectStart(ObjectMessage *,ulong)
 0000:0013F0D4       ObjectSuspend(ObjectMessage *,ulong)
 0000:0013F154       ObjectGetRegister(ObjectMessage *,ulong,ulong *)
 0000:0013F1E0       ObjectSetRegister(ObjectMessage *,ulong)
 0000:0013F268       CheckCopyTask(void)
 0000:0013F3C8       TOnlineService::DialogPart1((void))
 0000:0013F48C       TOnlineService::DialogPart2((void))
 0000:0013F558       TOnlineService::DialogPart3((void))
 0000:0013F798       SetDialingOptionsFromPrefs(TCMOModemDialing *)
 0000:0013FD64       FGetOnlineEndpoint(RefVar const &)
 0000:00140250       TOnlineService::ConnectComplete((TEndpointEvent *))
 0000:001402D0       TOnlineService::PrepDialog((void))
 0000:00140304       TOption::TOption((ulong))
 0000:00140440       TOptionIterator::TOptionIterator((TOptionArray *))
 0000:00140488       __ct__15TOptionIteratorFP12TOptionArraylT2
 0000:00140658       TOptionIterator::DeleteArray((void))
 0000:00140894       TOptionIterator::FindOption((ulong))
 0000:0014093C       TIrGlue::ConnectedAsPrimary((void))
 0000:0014098C       TOptionArray::TOptionArray((void))
 0000:00140A7C       Init__12TOptionArrayFUlT1
 0000:00140AB8       TOptionArray::Init((TSubArrayOption *))
 0000:00140B24       TOptionArray::Reset((void))
 0000:00140C0C       TOptionArray::RemoveOptionAt((long))
 0000:00140ECC       CopyFromShared__12TOptionArrayFUlT1
 0000:00140F68       TOptionArray::CopyToShared((ulong))
 0000:00140FC4       TOptionArray::MakeShared((ulong))
 0000:00141168       TIrDATool::DoConnectComplete((long))
 0000:001411CC       TOptionArray::ShadowCopyBack((void))
 0000:00141328       POptionDataIn::Translate((void *,PipeCallBack *))
 0000:00141384       POptionDataIn::ConvertFromOptionArray((RefVar const &,TOptionArray *,PFrameSource *))
 0000:00141878       POptionDataOut::ConvertToOptionArray((RefVar const &,TOptionArray *,PFrameSink *))
 0000:00142090       TOutline::DoClick((TRect &))
 0000:001429E4       TOutline::FindTopic((TPoint))
 0000:00142B18       TOutline::InitTopics((void))
 0000:00142FFC       TOutline::RealDoCommand((RefVar const &))
 0000:001431B4       TOutline::RealDraw((TRect &))
 0000:00143728       THelpOutline::DerivedFrom(const(long))
 0000:001439BC       TOutline::TopicText((long,ushort *,long *))
 0000:00143F54       TPickView::DerivedFrom(const(long))
 0000:00144924       TOutline::ClickCommand((long))
 0000:00144FC4       TP3Packet::TP3Packet((void))
 0000:00145138       TP3Tool::SendInitPacket((void))
 0000:001452A0       SendSystemPacket__7TP3ToolFUcT1
 0000:00145400       TP3Tool::Init((void))
 0000:00145760       TP3Tool::PutBytes((CBufferList *))
 0000:00145E5C       TP3Tool::GetBytesComplete((void))
 0000:001469D8       ProcessOptionStart__7TP3ToolFP7TOptionUlT2
 0000:00146E9C       TPAPInterface::CloseConnection((void))
 0000:001472E4       TPAPInterface::HandleSendDataRequest((TPAPSendDataPacket *,ushort,TAddress &))
 0000:0014739C       TPAPInterface::HandleCloseConnectionRequest((TPAPCloseConnPacket *,ushort))
 0000:00147478       TPAPInterface::HandleTimer((ulong))
 0000:00147620       TPAPInterface::AEHandlerProc((TUMsgToken *,ulong *,TAEvent *))
 0000:001477E4       TPAPInterface::FlushData((ulong))
 0000:001479BC       TPAPInterface::GetData((char *,ulong *))
 0000:00147A5C       TPAPInterface::GetStatus((TString255 *))
 0000:00147B94       TPAPInterface::CancelAsyncEvents((void))
 0000:00147C98       TPAPInterface::PrepareRead((void))
 0000:0014814C       TPAPInterface::Open((ushort *,uchar,TString255 *))
 0000:001487E8       TPAPInterface::PrepareTicklePacket((void))
 0000:00148858       TPAPInterface::PrepareStatusRequestPacket((void))
 0000:0014891C       CheckWord(char *)
 0000:00148BFC       TPAP::GetConnectionId((TGetConnectionIdMessage *))
 0000:00149678       REPIdle(void)
 0000:001496C4       TXArray::SetPhysicalCount((long))
 0000:00149778       TPCommTool::TaskDestructor((void))
 0000:001499B8       CSDrawInRect__FP14CSStrokeHeaderUllT3P5FRectUc
 0000:00149AAC       GenericCSMakePathsGroup__FP14CSStrokeHeaderlN32
 0000:00149BF8       GenericCSCompress(TStroke **,ushort)
 0000:00149E0C       GenericCSDraw__FP14CSStrokeHeaderUllT3Uc
 0000:00149E8C       GenericCSExpandGuts__FP14CSStrokeHeaderPPvUllN34Uc
 0000:00149F98       Decode(CSStrokeHeader *,ushort,void *,short (*)(short,_POINT *,_DCC *))
 0000:0014A02C       PGCGetPointProc(short,_POINT *,_CDC *)
 0000:0014A2E0       BeginStroke(_EXPAND_PARAMS *)
 0000:0014A364       EndStroke(_EXPAND_PARAMS *)
 0000:0014A3D8       AddStrokePoint__FP14_EXPAND_PARAMSlT2
 0000:0014A498       PGCStorePointProc(short,_POINT *,_DCC *)
 0000:0014A654       DrawBufferedPoints(_DPINST *)
 0000:0014A750       PGCDrawPointProc(short,_POINT *,_DCC *)
 0000:0014A960       InitializeParagraphCompression(void)
 0000:0014A9E4       CSExpandGroup__FP14CSStrokeHeaderUllT3
 0000:0014AA20       CSRawExpandGroup__FP14CSStrokeHeaderUllN33
 0000:0014AA58       CSDraw__FP14CSStrokeHeaderUllT3Uc
 0000:0014AB10       PMuxServiceStarter::OpenConnectionEnd((TOptionArray *,ulong,char *,TCMService *,long))
 0000:0014AC5C       PMuxServiceStarter::StartMuxTool((ulong,char *,long))
 0000:0014AE54       GetInternalStore(void)
 0000:0014AF8C       TPowerManager::PowerOffTimeout((void))
 0000:0014B018       TPSSManager::UIEngine((uchar))
 0000:0014B060       TPSSManager::MessageInUse((void))
 0000:0014B1FC       TPSSManager::RegisterStores((void))
 0000:0014B258       TPSSManager::DeregisterStores((void))
 0000:0014B2B4       TPSSManager::GCStores((void))
 0000:0014B448       TPSSManager::CardAvailable((TCardMessage *))
 0000:0014B768       TPSSManager::CardGone((TCardMessage *))
 0000:0014B8CC       TPSSManager::CardIsSame((TCardMessage *))
 0000:0014BCC0       TPSSEventHandler::AECompletionProc((TUMsgToken *,ulong *,TAEvent *))
 0000:0014BD18       TXHilite::SetHiliteStart((TXOffset))
 0000:0014C0F8       IsValidStore(TStore const *)
 0000:0014C144       GetCardSlotStores(int,TStore **)
 0000:0014C15C       ReinsertCard(int,ushort const *,uchar)
 0000:0014C180       TPSSManager::MainConstructor((void))
 0000:0014C358       SPSSSlotInfo::Clear((void))
 0000:0014C7A4       TPSSManager::TheMain((void))
 0000:0014D3C8       TPSPrinter::FixedToString((long,char *))
 0000:0014D9E4       TPSPrinter::SetupPSTextMode((long))
 0000:0014E318       PrStdText__FlN21
 0000:0014E664       PrStdLine(Point)
 0000:0014E880       PrStdRect(uchar,Rect *)
 0000:0014E9BC       PrStdRRect__FUcP4RectlT3
 0000:0014EDF0       PrStdOval(uchar,Rect *)
 0000:0014EF2C       PrStdArc__FUcP4RectlT3
 0000:0014F104       PrStdPoly(uchar,Polygon **)
 0000:0014F25C       PrStdRgn(uchar,Region **)
 0000:0014F2A4       PrStdBits__FP8PixelMapP4RectT2lPP6Region
 0000:0014F86C       PrStdCurve(uchar,curve *)
 0000:0014FA18       PrStdPaths(uchar,paths **)
 0000:0014FBB0       TPSPrinter::DoSetGray((uchar))
 0000:0014FC24       TPSPrinter::Draw1Curve((curve *,Point,uchar))
 0000:00150150       Draw1QDLine__10TPSPrinterFRC6FPoint5PointT1
 0000:0015054C       HandleExpiredStroke(TUnit *)
 0000:00150650       CheckVAddrRange__FUlT1
 0000:001506B8       VToDomain(ulong)
 0000:001506F8       PrimSetDomainRange__FUlN21
 0000:00150760       PrimSetDomainRangeWithPageTable__FUlN31
 0000:001507B4       PrimClearDomainRange__FUlT1
 0000:00150818       AddPTable__FUlT1Uc
 0000:00150884       AddPTableWithPageTable__FUlN21
 0000:001508C8       AddSecP__FUlT1Uc
 0000:0015090C       RemovePgPerm(ulong)
 0000:00150978       Readable
 0000:00150A28       RemoveSecP(ulong)
 0000:00150AB4       AddPgPAndPermWithPageTable__FUlN31Uc
 0000:00150B3C       AddPgPAndPerm__FUlN21Uc
 0000:00150BD8       AddSubPgPerm(ulong,Perm)
 0000:00150C74       RemoveBigSubPgPerm(ulong)
 0000:00150DC8       RemoveSecPerm(ulong)
 0000:00150E14       RemoveSubPgPerm(ulong)
 0000:00150F08       AddBigSubPgPerm(ulong,Perm)
 0000:00150FA8       RemoveBigPgPerm(ulong)
 0000:0015103C       GetEffectiveInterruptPriority(InterruptObject *)
 0000:00151080       RemovePgP(ulong)
 0000:0015112C       AddBigPgPerm(ulong,Perm)
 0000:001511C0       RemoveBigPgP(ulong)
 0000:00151244       RemovePgPAndPerm(ulong)
 0000:001512B8       CopySectionIntoPageTable__FUlT1
 0000:0015139C       CanUseBigPage(ulong)
 0000:00151424       TransformBigPageToPages(ulong)
 0000:0015153C       PageMappedInRange(ulong,ulong *,ulong *,ulong *)
 0000:00151630       PrimRemovePMappings__FUlT1
 0000:00151684       CopyPhysicalPage__FUlN21
 0000:00151730       ChangePRangeAccessibility__FUlT115EPhysChangeType
 0000:001519E8       GetPrimaryPageTableEntry(ulong)
 0000:00151A00       ChangePrimaryMappingToPages__FUlT1
 0000:00151AD4       RestorePrimaryMapping__FUlT1
 0000:00151B0C       GetSecondaryPageTableEntry(ulong)
 0000:00151B6C       ChangePageMapping__FUlT1
 0000:00151BF8       RestorePageMapping__FUlT1
 0000:00151C84       AddBigPgP__FUlT1Uc
 0000:00151EBC       VToUnit(ulong)
 0000:00151F54       PrimVToP(ulong)
 0000:00152180       TPMIterator::NextPackage((void))
 0000:00152234       TPMIterator::Init((void))
 0000:001523B0       TPkSafeToDeactivate::TPkSafeToDeactivate((ulong))
 0000:001525F8       TPkPartInstallEvent::TPkPartInstallEvent((PartId const &,ExtendedPartInfo const &,SourceType,PartSource const &))
 0000:001526BC       TInker::MainConstructor((void))
 0000:00152700       TPackageIterator::VerifyPackage((void))
 0000:001527A0       TPackageIterator::NumberOfParts((void))
 0000:00152820       TPackageIterator::PackageSize((void))
 0000:001528DC       TPackageIterator::CreationDate((void))
 0000:00152924       TPackageIterator::TPackageIterator((CPipe *))
 0000:00152998       TPackageIterator::GetPartInfo((ulong,PartInfo *const))
 0000:001529F4       RegisterVoyagerMiscIntf(void)
 0000:00152A1C       TPackageIterator::Store((TStore *,ulong,TCallbackCompressor *))
 0000:00152A40       TPackageIterator::Store((TStore *,ulong,TCallbackCompressor *,TLOCallback *))
 0000:00152EC4       TPackageIterator::~TPackageIterator((void))
 0000:00152F00       TPackageIterator::DisposeDirectory((void))
 0000:00152F64       ComputeSizeOfEntriesAndData__16TPackageIteratorFRUlT1
 0000:001530D0       TPackageIterator::GetRelocationChunkInfo((void))
 0000:001531C0       TPackageIterator::SetupRelocationData((ulong,ulong *))
 0000:0015350C       cPackageLoad(TPackageLoader &,ulong *)
 0000:001538B0       TPackageLoader::Load((void))
 0000:00153DAC       TPackageEventHandler::GetUniquePackageId((void))
 0000:00153DF4       TPackageEventHandler::LoadProtocolCode((void **,PartInfo &,SourceType,PartSource const &))
 0000:001544C8       DoMungeShape__FRC6RefVarN21sT4
 0000:00154918       LoadNextPart__20TPackageEventHandlerFPlPUcT2
 0000:00154DE4       TPackageEventHandler::GetPartSize((void))
 0000:0015512C       RemovePackage__20TPackageEventHandlerFP14TPkRemoveEventUcT2
 0000:001552EC       TPackageEventHandler::SearchRegistry((long *,ulong *,long))
 0000:001553A0       TPackageEventHandler::Register((TPkRegisterEvent *))
 0000:00155430       TPackageEventHandler::Unregister((TPkUnregisterEvent *))
 0000:00155494       TPackageEventHandler::SafeToDeactivatePackage((TPkSafeToDeactivate *))
 0000:001555EC       TPackageEventHandler::GetBackupInfo((TPkBackupEvent *))
 0000:00155758       Init__13TPackageBlockFUlN2110SourceTypeT1PUsT6N21
 0000:001560AC       Ruerasepersistentconfirmbutton0str
 0000:00156188       TPackageStorePartHandler::Install((PartId const &,SourceType,PartInfo *))
 0000:0015653C       JoinRect__FP4RectN21
 0000:001565E8       InitPackageSoups(void)
 0000:0015684C       PackageRoot::PackageRoot((void))
 0000:00156894       DuplicatePackageData(TStore *,ulong,ulong,ulong *,uchar)
 0000:00156BE8       BackupPackage(CPipe *,ulong)
 0000:00156F78       BackupPackage(CPipe *,TStore *,ulong,TLOCallback *)
 0000:0015732C       TStackManager::UpdatePageState((TStackPage *))
 0000:00157620       AllocatePackage(CPipe *,TStore *,ulong,char *,void *,long,TCallbackCompressor *,TLOCallback *)
 0000:00157C70       InitWriteDebugFrame(uchar *,long)
 0000:00157CF8       InstallPackage__FPc10SourceTypePUlPUcT4P6TStoreUl
 0000:00157EC0       DeletePackage(ulong)
 0000:00157F18       IdToStore(ulong,TStore **,ulong *)
 0000:00157F98       IdToVAddr(ulong,ulong *)
 0000:00158008       StoreToId(TStore *,ulong,ulong *)
 0000:0015807C       SafeToDeactivatePackage(ulong,uchar *)
 0000:00158118       NewPackage(CPipe *,TStore *,ulong,ulong *,char *,void *,long,TCallbackCompressor *)
 0000:00158288       PackageAllocationOk(TStore *,ulong)
 0000:001582EC       PackageAvailable__FP6TStoreUlPUlPUcT4
 0000:001583EC       PackageAvailable(TStore *,ulong,ulong *)
 0000:0015845C       PackageUnavailable(ulong)
 0000:001584F4       CopyPackageData__FP11PackageRootP6TStoreT2Uc
 0000:0015887C       TPageManager::Release((ulong))
 0000:00158964       TPageManager::Register((ulong))
 0000:001589E4       TUMonitor::DestroyObject((void))
 0000:00158A64       FPenPos
 0000:00158AA4       FreePageCount__13TUPageManagerSFPUl
 0000:00158B04       ReleaseRequest__20TUPageManagerMonitorSFUli
 0000:00158CEC       Make__12TPageManagerSFRUlUlP11TLittlePhys
 0000:00158D34       TPageManager::Get((ulong &,ulong,int))
 0000:00158D98       TPageManager::Get((ulong &,ulong,int,TUMonitor *))
 0000:00158E28       TPageManager::GetExternal((ulong &,ulong,int))
 0000:00158EE0       TPageTableManager::AllocatePageTable((void))
 0000:00158FBC       TPageTableManager::AllocatePageTable((ulong,ulong &))
 0000:001590B8       TPageTableManager::ReleasePageTable((ulong))
 0000:00159258       PrimRememberPermMapping__FUlT14Perm
 0000:0015933C       PrimForgetPermMapping__FUlT1
 0000:00159410       PrimRememberMapping__FUlT1P5TPhysUc
 0000:001594A0       PrimForgetMapping(ulong,TPhys *)
 0000:00159574       MakeConforming(ulong,ulong *)
 0000:001596A0       PrimRememberPhysMapping(ulong,TPhys *,TPhys *,TPhys *,uchar)
 0000:00159790       PrimForgetPhysMapping(ulong,TPhys *,TPhys *)
 0000:00159A28       PageScroll
 0000:0015A250       PageTurnAway(RefVar const &,uchar,TView *)
 0000:0015B17C       PageTurnToSpread(RefVar const &,ulong)
 0000:0015B850       AddToContentArea
 0000:0015B884       ContentView(RefVar const &)
 0000:0015B960       HiliteBlock
 0000:0015BE08       IsSpread(RefVar const &)
 0000:0015D2E0       AD_InterruptHandler(void *)
 0000:0015E36C       BuildDomainsAndHeaps(ulong)
 0000:0015F3AC       TParagraphView::FillAllCaches((short *))
 0000:0015FA48       TParagraphView::CreateStyleRecordCache((short **))
 0000:0015FE40       TParagraphView::GetInterLineSpacing((void))
 0000:00160130       TParagraphView::UpdateCachedBounds((void))
 0000:001604CC       TParagraphView::HandleHilite((TUnitPublic *,long,uchar))
 0000:001605C4       TParagraphView::HiliteParagraph((TUnitPublic *,uchar))
 0000:00160760       TParagraphView::HiliteLines((TUnitPublic *,uchar))
 0000:00160888       TParagraphView::HiliteRange((TUnitPublic *,uchar))
 0000:00160D4C       Replace__6TXViewFRC13TXOffsetRangeRC6RefVarUcT3
 0000:00160FF0       TParagraphView::UpdateHiliteArea((void))
 0000:0016111C       RangesIntersect__FlN31PlT5
 0000:00161164       Area__14TParagraphViewFlT1
 0000:001619A4       TParagraphView::GetNextBaseline((TParagraphView *))
 0000:00161C64       TParagraphView::AdjustBoundsForFirstBaseline((long))
 0000:00161C90       GetCachedRange__14TParagraphViewFPlT1
 0000:001626F0       TParagraphView::CreateAllCaches((void))
 0000:00162878       SetRemoteForCorrector(void)
 0000:00162934       TSliderView::HandleClick((RefVar const &))
 0000:0016505C       TParagraphView::HandleReplaceText((RefVar const &))
 0000:001661D4       TParagraphView::HandleInsertItems((RefVar const &))
 0000:00167130       DoInsertItems__FP5TViewRC6RefVarUcT3lT5T3T2
 0000:001672D0       FHandleInsertItems
 0000:001672F8       FHandleInkWord
 0000:00167320       FHandleRawInk
 0000:00167470       ContainsHilitedInkWord(TView *)
 0000:0016772C       PointToCaret__14TParagraphViewFR6TPointP5TRectT2
 0000:00167B48       TParagraphView::OffsetToCaret((long,TRect *))
 0000:00167EA0       TParagraphView::CaretRelativeToVisibleRect((TRect const &))
 0000:00168098       TParagraphView::WordOnLineBelowParagraph((TRect const &,TPoint const &))
 0000:0016851C       TParagraphView::HandleInkWord((RefVar const &,uchar))
 0000:0016893C       TObjectManager::MonitorProc((long,ObjectMessage *))
 0000:001690B4       TParagraphView::SaveAddedUnitBounds((TRect const &,TPoint const &,ulong))
 0000:001694C8       WordFitsAtEndOfLine__14TParagraphViewFPCUsUlT2R5TRect
 0000:00169708       MinWidthToIntuitTab(ushort const *,TRect const &)
 0000:001697B0       TParagraphView::FindWordInParagraph((Finder *))
 0000:00169D54       TParagraphView::AddTabStop((TRect &))
 0000:0016A1D0       TParagraphView::HandleScrub((TRect const &,long,TUnitPublic *,uchar))
 0000:0016A3EC       TParagraphView::ScrubWords((TRect const &,TUnitPublic *,uchar))
 0000:0016AC10       TParagraphView::ScrubLines((TRect const &,TUnitPublic *,uchar))
 0000:0016B004       TParagraphView::DeleteHilitedTextOnly((RefVar const &))
 0000:0016B05C       TView::DoEditCommand((long))
 0000:0016B630       HandleCaret__14TParagraphViewFUllR6TPointN33
 0000:0016BAEC       TParagraphView::FindLineForWord((TRect const &,long))
 0000:0016BC28       CheckAndDoJoin__14TParagraphViewFR6TPointN21
 0000:0016C05C       InsertHorizontalSpace__14TParagraphViewFR6TPointlT2Uc
 0000:0016C490       TParagraphView::CheckAndDoSplitInk((TPoint &,long))
 0000:0016C754       TParagraphView::InsertVerticalSpace((TPoint &,long))
 0000:0016CA54       SaveInsertArea__FP13InsertRunListUlT2
 0000:0016CC1C       AdjustInsertAreasAfterDeletion__14TParagraphViewFP13InsertRunListUlT2
 0000:0016CD34       AdjustInsertAreasAfterInsertion__14TParagraphViewFP13InsertRunListUlT2Uc
 0000:0016CE18       HandleLineGesture__14TParagraphViewFlR6TPointT2
 0000:0016D468       TParagraphView::AddKeyToCurrUndo((ushort,long))
 0000:0016D6C8       TParagraphView::FlushWordAtCaret((void))
 0000:0016D87C       CorrectorUp(void)
 0000:0016D8E4       TParagraphView::FindLineContainingPoint((TPoint *,MarginSize))
 0000:0016DB54       TParagraphView::FindClosestBaseline((short))
 0000:0016DD54       TParagraphView::FindTextRunContainingCoordinate((LineInfo *,short,long *))
 0000:0016E17C       TParagraphView::FindWordOffset((TPoint,long *,TPoint *))
 0000:0016E77C       TParagraphView::OffsetToBounds((long,TRect *))
 0000:0016E954       OffsetInRunToBounds__14TParagraphViewFlP8LineInfoN21P5TRect
 0000:0016EA5C       TParagraphView::GetInkRefAndBounds((long,TRect *))
 0000:0016EB34       IntFontToFontParms(RefVar const &)
 0000:0016EC44       ChangeStylesOfRange__14TParagraphViewFlT1RC6RefVarUc
 0000:0016F744       RemoveText__14TParagraphViewFUlT1
 0000:0016F900       MakeAndDoReplaceCommand__14TParagraphViewFUlPCUsT1RC6RefVarT4N21Uc
 0000:0016FD5C       AdjustStyles__14TParagraphViewFlN21RC6RefVarT1
 0000:0017008C       GetStylesOfRange__14TParagraphViewFlT1Uc
 0000:00170290       SetFontParms__FRC6RefVarT1
 0000:00170458       SaveStylee__FRC6RefVarT1
 0000:001704C8       SetFontFamily__FRC6RefVarT1
 0000:00170684       GetParagraphStyleRecordMetrics__FP11StyleRecordPlN32
 0000:001707DC       CommandSetText__FRC6RefVarT1
 0000:001707EC       CommandText(RefVar const &)
 0000:00170890       ContainsOnlyWhiteSpace(ushort *,ulong)
 0000:00170E70       SaveStylesAndTabStopsArrays__FRC6RefVarT1
 0000:00170F04       ExtractStylesArray(RefVar const &)
 0000:00170F5C       ExtractTabStopsArray(RefVar const &)
 0000:00171004       CompactStyleRuns(RefVar const &)
 0000:00171158       RemoveTabsAndCRs(ushort *,RefVar const &)
 0000:001712EC       LengthSansTabsAndCRs(ushort *,uchar *)
 0000:00171544       TXBasicRuler::GetNSObject(const(void))
 0000:001716BC       DeleteMatchingWord__FRC6RefVarT1
 0000:001716E8       DoReplaceSym(TParagraphView *,WordHit *,ushort *,RefVar const &)
 0000:001722B4       TextBounds(TRichString &,RefVar const &,TRect *,long)
 0000:001722E4       DrawSimpleParagraph(TRichString &,RefVar const &,TRect *,long,uchar,uchar)
 0000:00172548       DrawSimpleLine(TRichString &,ulong,FPoint *,StyleRecord **,TextOptions *,RefVar const &,long *,uchar)
 0000:00172BD8       DestroyTextObjectCache(long **,TextOptions *)
 0000:00172D4C       InitializeLineInfoCache(LineInfo ***,long)
 0000:00172EB8       DestroyLineInfoCache(LineInfo ***)
 0000:00172F08       UpdateStyleRunLengths__FPPsPPP11StyleRecordT2UlUc
 0000:001731E8       FindNextTabStop__FRC6RefVarlT2Pl
 0000:00173354       GetTextObjBounds(long,TRect *)
 0000:001733D4       SetTextObjBaseline(long,TPoint &)
 0000:00173408       GetTextObjFlush(long)
 0000:001735A4       GetFontSize(RefVar const &)
 0000:00173734       FindNearestWordBoundary__FRC6TPointlN22
 0000:00173820       LeftEdgeOfEmptyLine(TRect const &,long)
 0000:00173A58       CharLeftEdge__FlT1P6TPoint
 0000:00173B04       GetFontFace(RefVar const &)
 0000:00173BD8       CoordToChar(long,short)
 0000:00173C2C       ExtractRichStringFromParaSlots__FRC6RefVarT1UlT3
 0000:00173DF4       GetStyleAtOffset__FRC6RefVarlPlT3
 0000:0017454C       TParagraphView::FixupBBox((void))
 0000:00174718       TEditView::GetSelection((void))
 0000:0017490C       TParagraphView::SimpleOffset((TPoint))
 0000:00174940       TParagraphView::RemoveExcessWhiteSpace((InsertRun *))
 0000:00174CDC       TParagraphView::Idle((long))
 0000:00174F24       TParagraphView::AddHilited((RefVar const &,TEditView *))
 0000:00175148       TParagraphView::HiliteClick((TStrokePublic *))
 0000:00175740       Drop__14TParagraphViewFRC6RefVarT1P6TPoint
 0000:00176160       SetValue__14TParagraphViewFRC6RefVarT1
 0000:00176568       InPrintOrPreview(TView *)
 0000:00176840       TParagraphHilite::Clone((void))
 0000:001769F8       TParagraphView::GetStyles((void))
 0000:00176D50       TParagraphView::GetProperties((RefVar const &))
 0000:00176E18       TParagraphView::DerivedFrom(const(long))
 0000:0017700C       FDrawExpando
 0000:00177B84       ConvertBuffer(TParseBuffer *,void *)
 0000:00177E54       TPartHandler::ReplyImmed((long))
 0000:00177EC4       TPartHandler::Copy((void *))
 0000:00178374       TPartHandler::Init((ulong))
 0000:0017871C       CPartPipe::Init((ulong,CShadowRingBuffer *,uchar))
 0000:001789B0       TPipeApp::MainConstructor((void))
 0000:00178B68       TPipeEventHandler::AEHandlerProc((TUMsgToken *,ulong *,TAEvent *))
 0000:00179188       CPartPipe::ReadChunk((void *,long &,uchar &))
 0000:0017926C       TPhys::TPhys((void))
 0000:001792A0       ChangeVirtualMapping__5TPhysFUlT115EPhysChangeType
 0000:001792E0       TLittlePhys::TLittlePhys((void))
 0000:001793C4       Init__5TPhysFUlT1UcT3
 0000:00179428       TPhys::Invalidate((void))
 0000:001798CC       TPickView::SetupForm((void))
 0000:0017A708       TPickView::RealDraw((TRect &))
 0000:0017AF68       TPickView::HandleKeyDown((ushort,ulong))
 0000:0017B118       TPickView::GetGridItemRect((PickStuff *,TRect *))
 0000:0017B320       TPickView::FlashItem((PickStuff *))
 0000:0017B368       TPickView::SubItem((TPoint &,PickStuff *))
 0000:0017B4F4       TPickView::PickableItem((TPoint &,PickStuff *))
 0000:0017B734       TPickView::TrackStroke((TStrokePublic *,PickStuff *))
 0000:0017BC18       TPictureView::DerivedFrom(const(long))
 0000:0017BEDC       TPickView::GetDisplayIcon((RefVar const &))
 0000:0017C188       TGaugeView::DerivedFrom(const(long))
 0000:0017C2B0       WedgeBox__FP5TRectsT2
 0000:0017C664       TGaugeView::TrackSetValue((TUnitPublic *))
 0000:0017C8E8       Justify(TRect *,TRect const &,ulong)
 0000:0017CB7C       DrawPicture(RefVar const &,TRect const &,ulong,long)
 0000:0017D0A0       TPrintView::DerivedFrom(const(long))
 0000:0017D0DC       TPictureView::Hilite((uchar))
 0000:0017D298       IsEllipse__11TStrokeUnitFP6FPointPlN22PUl
 0000:0017D3A4       DrawScaledData__12TPictureViewFRC5TRectT1P5TRect
 0000:0017D9C8       Init__18TPixelMapCompanderFP6TStoreUlT2UcT4
 0000:0017DBA8       TPixelMapCompander::DisposeAllocations((void))
 0000:0017DC20       Read__18TPixelMapCompanderFUlPclT1
 0000:0017DEAC       Write__18TPixelMapCompanderFUlPclT1
 0000:0017E690       TPolygonView::OuterBounds((TRect *))
 0000:0017E968       GetDropData__12TPolygonViewFRC6RefVarT1
 0000:0017F168       DrawData__12TPolygonViewFP12PolygonShapeP6TPointT2
 0000:0017F620       TPolygonView::DrawHilitedData((void))
 0000:0017F6F8       TPolygonView::DrawHilites((uchar))
 0000:0017FC28       TView::AddHiliter((TUnitPublic *))
 0000:0017FD98       HitSegment__12TPolygonViewFRC5TRectPlT2
 0000:0017FF78       TPolygonView::MakePointsCommand((ulong,long))
 0000:0017FFE8       RemovePoints__12TPolygonViewFP6TPointT1lN33
 0000:001805E4       ScaleInk__FRC6RefVarlT2
 0000:00180718       Scale__12TPolygonViewFRC5TRectT1
 0000:00180AC8       TPolygonView::AddHilite((TPolygonHilite *))
 0000:00180B60       UpdatePenSizePalette(void)
 0000:00180BF4       TPolygonView::PolygonHiliteChanged((void))
 0000:00180C40       TPolygonView::RemoveHilite((RefVar const &))
 0000:00181540       TrySnap__FRC9SegParamslT2PlT4Pc
 0000:00181584       SearchForSnap__FP6TPointR6TPointlT3P9TUnitListPl
 0000:00181A18       AddInterval__FlT1PlT3
 0000:00181CC8       NextPolySegHit__FP12PolygonShapeR6TPointPlN23
 0000:00181D70       gHiliteHitSlopF
 0000:00181E80       NextHiliteIndex__FP6TPointlN22
 0000:00182E10       MakeHilite__12TPolygonViewFlN31
 0000:001831D4       TPolygonView::MakeInkHilite((void))
 0000:001832E8       TPolygonView::UpdateBounds((PolygonShape *))
 0000:00183510       TPolygonView::GetPenSize((void))
 0000:00183520       TPolygonView::SetPenSize((long))
 0000:00183620       Scale__12PolygonShapeFRC5TRectT1
 0000:0018367C       Offset__12PolygonShapeFlT1
 0000:001836E8       TPolygonView::DerivedFrom(const(long))
 0000:0018371C       PolygonShape::CalcBounds((TRect *))
 0000:0018383C       TPolygonHilite::Clone((void))
 0000:001839B4       TPolygonView::RealDoCommand((RefVar const &))
 0000:00184400       TPolygonHilite::Encloses((TPoint const &))
 0000:001848B8       PortResetFilterKernelGlue
 0000:001849FC       TPort::~TPort((void))
 0000:00184AD4       SendForInterrupt__FUlN21PvN31P5TTimeUc
 0000:00184C7C       PortDeferredSendNotify(void)
 0000:00184CE0       NotifySend(TSharedMemMsg *)
 0000:00184D68       LocalToGlobalId(ulong)
 0000:00184E0C       ConvertIdToObj(KernelTypes,ulong,void *)
 0000:00184E80       PortSendKernelGlue
 0000:00185014       TPort::Send((TSharedMemMsg *,ulong))
 0000:00185118       PortReceiveKernelGlue
 0000:00185224       TPort::Receive((TSharedMemMsg *,ulong))
 0000:00185360       TSerialChip16450::CardRemoved((void))
 0000:0018540C       SetVccTimeout(int,ulong)
 0000:00185464       TCardServer::DoPollLockSwitchAndCardDetected((ulong,TCardSocket *,TCardSocketState *))
 0000:00185644       Rkoserroralertbutton0bounds
 0000:00185648       TSerialChipVoyager::WaitNextByteWithTimeOut((void))
 0000:00185690       TSerialChipVoyager::ReceivePacket((void))
 0000:00185A94       HandleProblem(RefVar const &,TPrinter *,long,ulong,uchar)
 0000:00185DB8       TRemoteView::DerivedFrom(const(long))
 0000:00185E70       TPrintView::ROMRealDoCommand((RefVar const &))
 0000:00186C18       CoolSleep(ulong)
 0000:00186CEC       MakePrinter(RefVar const &)
 0000:00186DF8       TPrDriverPart::InstallFrame((RefVar const &,PartId const &,SourceType,PartInfo *))
 0000:00187060       CallHandleProblem(PrintConnect *,TPrinter *,long,ulong,uchar)
 0000:00187148       UstrlenPrivate(ushort const *)
 0000:0018717C       TPrivatePackageIterator::VerifyPackage((void))
 0000:00187284       TPrivatePackageIterator::PackageName((void))
 0000:00187298       TPrivatePackageIterator::GetPartDataOffset((ulong))
 0000:001872D0       TPrivatePackageIterator::NumberOfParts((void))
 0000:001872E4       TPrivatePackageIterator::PackageSize((void))
 0000:001872F8       TPrivatePackageIterator::GetPartInfoDesc((ulong,PartInfo *const))
 0000:001873C0       TPrivatePackageIterator::GetPartInfo((ulong,PartInfo *const))
 0000:00187408       IsPackageHeader__FUlT1
 0000:00187518       TPrivatePackageIterator::TPrivatePackageIterator((void))
 0000:00187560       TPrivatePackageIterator::~TPrivatePackageIterator((void))
 0000:00187590       TPrivatePackageIterator::DisposeDirectory((void))
 0000:00187658       ComputeSizeOfEntriesAndData__23TPrivatePackageIteratorFRUlT1
 0000:00187680       TPrivatePackageIterator::GetRelocationChunkInfo((void))
 0000:00187698       TPrivatePackageIterator::SetupRelocationData((ulong,ulong *))
 0000:001876F8       TPrivatePackageIterator::Init((void *))
 0000:001877C8       WrapClassInfo(TClassInfo const *)
 0000:00187AF8       WrapProtocolInstance(TProtocol *)
 0000:00187B9C       FClassInfoByName
 0000:00187FF4       FDispatchProtocol
 0000:001881A0       TPseudoSyncState::Block((ulong))
 0000:001883EC       CPtrPipe::Init((long,PipeCallBack *))
 0000:001884A0       CPtrPipe::ReadChunk((void *,long &,uchar &))
 0000:00188520       CPtrPipe::WriteChunk((void *,long,uchar))
 0000:001885EC       TQDScaler::TQDScaler((void))
 0000:001886C0       Rabstractarrow
 0000:0018881C       ReplaceClip__9TQDScalerSFPP6RegionT1l
 0000:00188920       TQDScaler::SetupScalingRegions((void))
 0000:00188B0C       TQDScaler::~TQDScaler((void))
 0000:00188BB4       ScaledText
 0000:001890F8       ScaledPoly
 0000:001891C4       ScaledRgn
 0000:00189280       StartScaling__9TQDScalerSFP10TTransformUcl
 0000:00189478       ScaledPaths
 0000:0018956C       TQDScaler::Setup((void))
 0000:001896B8       RSprotobook
 0000:00189890       TQDScaler::UseTransform((TTransform *,uchar))
 0000:001898F4       StopScaling__9TQDScalerSFv
 0000:00189954       TQDScaler::Cleanup((void))
 0000:00189BAC       TRect::Union((TPoint))
 0000:00189C98       TRect::Intersects(const(TRect const &))
 0000:00189EA4       TRect::MidPoint(const(void))
 0000:00189F80       NewCachedRgn(void)
 0000:0018A13C       TRegionStruct::TRegionStruct((void))
 0000:0018A280       TRectangularRegion::TRectangularRegion((TRect const &))
 0000:0018A458       TXAdvancedRuler::GetAttributesValues((TXAttrValues *))
 0000:0018A534       TPoint::InverseScale((TTransform const &))
 0000:0018AA10       CheapDistance__FRC6TPointT1
 0000:0018AB34       TSerialDebugLink::Remove((void))
 0000:0018AB68       ReadDebugLong(void)
 0000:0018AB98       BeginReturnMessage(void)
 0000:0018ABB0       StopWithStatus__FUcT1P10ParamBlock
 0000:0018AD18       ReturnStatus(uchar)
 0000:0018AD3C       ReturnError(uchar)
 0000:0018AD74       ReturnNoError(void)
 0000:0018AD94       rdpReadMemory
 0000:0018ADC0       rdpNotImplemented
 0000:0018ADC8       SendDebugFrame(void)
 0000:0018ADF4       Rsymboltable
 0000:0018B004       rdpUndefinedMessage
 0000:0018B00C       rdpOpen
 0000:0018B04C       rdpWriteMemory
 0000:0018B0F8       rdpReadPhysicalMemory
 0000:0018B280       rdpWritePhysicalMemory
 0000:0018B32C       rdpReadARM600Registers
 0000:0018B374       rdpInfo
 0000:0018B3A8       rdpExecute
 0000:0018B3D4       rdpGo
 0000:0018B414       rdpImageCommand
 0000:0018B4D0       Rsalutationsuffix
 0000:0018B580       GetAndClearPreDebuggerPackageInfo(char *)
 0000:0018B594       WriteDebugLong(ulong)
 0000:0018B5D4       GetgWantSerialDebugging(void)
 0000:0018B5E4       SetgWantSerialDebugging(ulong)
 0000:0018B6F4       XInitSerialDebugging
 0000:0018B798       InitSerialDebugging
 0000:0018BCE8       FInitSerialDebugging
 0000:0018BDC0       FPreInitSerialDebugging
 0000:0018BE60       DordpROMBkpt
 0000:0018BF40       PollDebugByte(void)
 0000:0018BF50       rdpROMBkpt
 0000:0018C008       GetPagesForROMBkpts(int,TPageListDescription *)
 0000:0018C06C       rdpStop
 0000:0018C0B4       PrepPCSampleCall(void)
 0000:0018C0F0       DisableInterrupt
 0000:0018C17C       DebugByteAvailable(long)
 0000:0018C1B8       ReceiveDebugFrame(uchar *,long)
 0000:0018C220       ReadDebugByte(void)
 0000:0018C250       REPInit(void)
 0000:0018C410       exCompiler
 0000:0018C44C       REPAcceptLine(void)
 0000:0018C668       TSoundServer::SetInputVolume((long))
 0000:0018C6B4       REPprintf(char const *,...)
 0000:0018CC2C       TRTMP::Read((TAppleTalkMessage *))
 0000:0018CE5C       TRTMP::ResolveAddress((TAppleTalkMessage *))
 0000:0018CFA0       TRTMP::GetRouterAddress((TAppleTalkMessage *))
 0000:0018D0D4       TRTMP::ATLKDetachLink((TAppleTalkMessage *))
 0000:0018D328       TRTMPTableEntry::TRTMPTableEntry((void))
 0000:0018D610       Alarm__14TRealTimeClockSFv
 0000:0018D720       TSerialChipVoyager::ReadNextByteWithTimeOut((uchar *))
 0000:0018D8C0       SetAlarm__14TRealTimeClockSFUlT1PFPv_lPvN21
 0000:0018D948       ClearAlarm__14TRealTimeClockSFUl
 0000:0018DA0C       TLocalTalkTool::IHReqHandler((void))
 0000:0018DB54       TIRQTimer::AcquireIRQTimer((void (*)(void *,ulong),void *))
 0000:0018DEA8       RealTimeAlarm::Fire((ulong))
 0000:0018DFD8       SetAlarm__15TURealTimeAlarmSFUl5TTimePFPv_lPvN21
 0000:0018E09C       NewName__15TURealTimeAlarmSFPUl
 0000:0018E12C       GetDomainInfoByName__13MemObjManagerSFUlP10DomainInfo
 0000:0018E234       Init__13RealTimeAlarmFUlPFPv_lPvN21PUl
 0000:0018E540       SetUpRosetta(ulong)
 0000:0018E6EC       SQRT32(ulong)
 0000:0018E9DC       BuildInputMask(RefVar const &,ulong,uchar)
 0000:0018EC50       TRecognitionManager::Update((TRect &))
 0000:0018ED10       TRecognitionManager::InitRecognizers((void))
 0000:0018EDC4       TRecognitionManager::EnableModalRecognition((TRect &))
 0000:0018EE44       TRecognitionManager::ModalRecognitionOK((TRect &))
 0000:0018EEAC       FModalRecognitionOn
 0000:0018EF80       HandleUnit(TArray *)
 0000:0018F004       HandleUnitList(TArray *)
 0000:0018F3A0       TListView::Scrub((TUnitPublic *))
 0000:0018F438       TClassOneModem::GetModParamStr((ulong))
 0000:0018F4EC       UpdateStroke(TUnit *)
 0000:0018F540       HandleGetContextUnits(TUnit *,long)
 0000:0018F634       PostAndDoCommand(ulong,TUnitPublic *,TUnitPublic *)
 0000:0018F7FC       TXRulerIconsBar::DoTabsClick((TXPointingDevice *,int,TXAttrValues *,long *))
 0000:0018FAC8       TRecognitionManager::Init((uchar))
 0000:0018FBC0       TRecognitionManager::SaveRecognitionState((uchar *))
 0000:0018FC84       TRecognitionManager::RestoreRecognitionState((ulong))
 0000:0018FD00       TRecognitionManager::Idle((void))
 0000:00190450       FCalcBundleBounds
 0000:001907D8       FGetUnitUpTime
 0000:0019084C       FRecognizePoly
 0000:00190914       FViewAllowsInk
 0000:0019093C       FViewAllowsInkWords
 0000:0019097C       FAddInk
 0000:00190A00       FShowX
 0000:00190B0C       CompareAndRebootIfDifferent__22TReservedBlockAccessorCFPCvT1l
 0000:00190B2C       FOtherViewInUse
 0000:00190CD0       FFindStringInFrame__FRC6RefVarN31
 0000:0019126C       FCountGesturePoints__FRC6RefVarT1
 0000:0019140C       FGetPolygons
 0000:00191668       FStrokeBounds__FRC6RefVarT1
 0000:00191694       FStrokesAfterUnit
 0000:00191988       NSSend__FRC6RefVarN51
 0000:00191A54       FPointsToArray__FRC6RefVarT1
 0000:00191C14       FArrayToPoints__FRC6RefVarT1
 0000:00192414       ScanNextWord__FPUslT2
 0000:001924E8       ScanPrevWordEnd__FPUslT2
 0000:0019254C       FClearTryString
 0000:001925E8       FAddTryString
 0000:0019263C       FInTryString
 0000:00192944       GetBundleBounds(RefVar const &,TRect *)
 0000:00192F94       MakeStrokeRef(RefVar const &,long)
 0000:00193BD8       TextOrInkWordsEnabled(TView *)
 0000:0019463C       StrokeBundleToTStrokes(RefVar const &)
 0000:00194860       UnionBounds(TStroke **,TRect *)
 0000:001948F4       OffsetStrokes__FPP7TStrokelT2
 0000:00194984       FNextInkIndex
 0000:001949D4       FGetInkAt
 0000:00194A18       FCalcInkBounds
 0000:00194CA0       PointInRectangle
 0000:00194E84       GetMapper
 0000:00194F44       MapPoint
 0000:001950E4       gSymb80Symbols
 0000:00195158       FindDomainId__13MemObjManagerSFUlPUl
 0000:00195218       CRefPipe::InitSource((RefVar const &,PipeCallBack *))
 0000:001956F0       TRefStackMark(void *)
 0000:00195724       TRefStackUpdate(void *)
 0000:00196310       MungeStyles__FRC6RefVarT1
 0000:001967EC       ReflowText__FRC6RefVarN21lPlT4
 0000:001971A0       DrawOneShape(RefVar const &,TPoint const &,TStyleSave *)
 0000:00197468       TRootView::DerivedFrom(const(long))
 0000:0019749C       TRemoteView::Constructor((RefVar const &,TView *))
 0000:001977F0       TResistiveTablet::StartBypassTablet((void))
 0000:0019783C       TResistiveTablet::StopBypassTablet((void))
 0000:00197BF8       TCardSocket::EnableSocketInterrupt((TSocketInt))
 0000:001985C4       TCardSocket::DisableSocketInterrupt((TSocketInt))
 0000:001986D8       TCardSocket::SetSocketInterruptFlags((TSocketInt,TSocketIntFlags))
 0000:00198724       TCardSocket::ResetInterrupts((void))
 0000:001987BC       TResponder::DerivedFrom(const(long))
 0000:0019886C       TResponderSocket::MatchResponder((ushort,TAddress const &,AddressEquiv))
 0000:0019893C       __ct__13TATPResponderFUcUsRC8TAddressT1
 0000:00198C88       TATPRequestor::CopyRequest((TAddress &,uchar *,ulong,ushort,uchar))
 0000:00198D20       TATPRequestor::Complete((long,TPacketBuffer *))
 0000:00198ED4       TResponseManager::CloseResponder((TCloseResponderMessage *))
 0000:00198F0C       TResponseManager::WantRequest((TWantRequestMessage *))
 0000:001992B8       TResponseManager::TransmitResponses((TMemoryObject &,TSendResponsesFormat &,ushort,TAddress const &,TATP *))
 0000:0019967C       HandleRequest__16TResponseManagerFR8TAddressUsUcN23PUcUlP4TATPP13TPacketBuffer
 0000:00199954       TResponderSocket::~TResponderSocket((void))
 0000:00199A54       TResponderSocket::NewResponder((ushort,TAddress const &,uchar))
 0000:00199AC0       GetExpandIndex(ushort *,ulong *)
 0000:00199CEC       ExpandWord(ushort *)
 0000:0019A55C       IsRichString(RefVar const &)
 0000:0019A590       TRichString::SetNoStringData((void))
 0000:0019A5D0       TRichString::SetStringData((RefVar const &))
 0000:0019A64C       TRichString::SetCPlainStringData((ushort *))
 0000:0019A680       DeleteRange__11TRichStringFUlT1
 0000:0019A6A8       InsertRange__11TRichStringFRC11TRichStringUlN22
 0000:0019A6D0       MungeRange__11TRichStringFUlT1PC11TRichStringN21
 0000:0019AB14       TRichString::SetObjectSize((long))
 0000:0019AB18       DoStringerStuff__11TRichStringFPcPlT1T2
 0000:0019AB98       GetInkData__11TRichStringCFUlT1PUlT3
 0000:0019AC54       IsRichCString(ushort *,ulong)
 0000:0019AC74       TRichString::SetChar((ulong,ushort))
 0000:0019AD3C       TRichString::CompareSubStringCommon(const(TRichString const &,ulong,long,uchar))
 0000:0019ADD8       CompareInkProc__FlT1Pv
 0000:0019ADDC       CompareInk__11TRichStringCFPC11TRichStringUlT2
 0000:0019AE90       TRichString::NumInkWords(const(void))
 0000:0019AEF8       NumInkWordsInRange__11TRichStringCFUlT1
 0000:0019AF9C       TRichString::InkWordNoAtOffset(const(ulong))
 0000:0019B004       NumInkAndTextRunsInRange__11TRichStringCFUlT1
 0000:0019B0A0       GetStringFormat(RefVar const &)
 0000:0019B0E4       GetLengthsAndDataInRange__11TRichStringCFUlT1PsPc
 0000:0019B1E4       TRichString::GetInkWordNoInfoOffset(const(ulong))
 0000:0019B270       TRichString::CloneInkWordNo(const(ulong))
 0000:0019B2F4       TRichString::GetChar(const(ulong))
 0000:0019B328       TRichString::MakeParagraphTextSlot(const(void))
 0000:0019B3F4       TRichString::MakeParagraphStylesSlot(const(RefVar const &))
 0000:0019B708       TRichString::Verify(const(void))
 0000:0019BA60       TRichString::GrabPtr(const(void))
 0000:0019BAA4       TRichString::ReleasePtr(const(void))
 0000:0019BB5C       GetCStringFormat(ushort *,ulong)
 0000:0019BB74       TRichString::Format(const(void))
 0000:0019BB7C       MakeRichString__FRC6RefVarT1Uc
 0000:0019BDF8       TRichString::TRichString((void))
 0000:0019BE44       TRichString::TRichString((RefVar const &))
 0000:0019BEB4       TRichString::TRichString((ushort *,ulong))
 0000:0019BF10       TRichString::TRichString((ushort *))
 0000:0019C0EC       TAlertItem::DrawButton((void))
 0000:0019C29C       CRingBuffer::CopyIn((CPipe *,long &))
 0000:0019C940       CRingBuffer::MakeShared((ulong))
 0000:0019CC7C       TCodecChannel::SendStart((void))
 0000:0019CDBC       CRingPipe::Init((long))
 0000:0019CE68       CRingPipe::ReadChunk((void *,long &,uchar &))
 0000:0019CF70       CRingPipe::WriteChunk((void *,long,uchar))
 0000:0019D30C       TROMDomainManager1K::FlushCache((TStore *,ulong))
 0000:0019D3FC       TerminateSerialDebugging
 0000:0019D5D8       ResizeObject__19TROMDomainManager1KFPUlUllT3
 0000:0019D7C8       EndTransaction__20LOTransactionHandlerFUcP6TStoreUlT3
 0000:0019DB28       TROMDomainManager1K::Fault((TProcessorState &))
 0000:0019DBA4       exPermissionViolation
 0000:0019DC68       TROMDomainManager1K::DecompressAndMap((ulong,PackageChunk *))
 0000:0019E0F8       TROMDomainManager1K::UserRequest((long,void *))
 0000:0019E7B8       TROMDomainManager1K::GetSourcePage((ulong))
 0000:0019ED78       Collect__19TROMDomainManager1KFPllT2P14PageTableChunk
 0000:0019F000       TROMDomainManager1K::FindSubPage((long *,long))
 0000:0019F9E4       ShuffleSubPages__19TROMDomainManager1KFlN21
 0000:0019FC0C       TROMDomainManager1K::WriteOutPage((ulong))
 0000:0019FE70       ROMDomainManagerFreePageCount(void)
 0000:0019FEA4       Reset__19TROMDomainManager1KFlT1
 0000:001A0074       ROMDomainBase(void)
 0000:001A00AC       ROMDomainSize(void)
 0000:001A00E8       GetXIPDomainBase(void)
 0000:001A02BC       TROMDomainManager1K::AddPackage((TStore *,ulong,uchar,ulong *))
 0000:001A06C0       TROMDomainManager1K::DeleteObjectInfo((PackageChunk *,long))
 0000:001A0788       NSSendRootMessage__FRC6RefVarN31
 0000:001A07C0       NSSendRootMessage__FRC6RefVarN41
 0000:001A0B88       RemoveModalSafeView(TView *)
 0000:001A0C2C       TRootView::ForgetAboutView((TView *))
 0000:001A0D20       TRootView::SmartInvalidate((TRect const &))
 0000:001A14E0       bpParam
 0000:001A1A34       TRootView::UnlinkIdleView((TView *))
 0000:001A1A58       TContainerView::HandleTap((TPoint &))
 0000:001A1B7C       TRootView::RemoveAllIdlers((TView *))
 0000:001A1C7C       TRootView::Hiliter((TUnitPublic *,TView *))
 0000:001A1E20       gApplication
 0000:001A22F0       AddClipboard__9TRootViewFRC6RefVarT1
 0000:001A2404       TRootView::SetHilitedView((TView *))
 0000:001A2470       DoAutoShift(TParagraphView *,long)
 0000:001A29DC       TRootView::RegisterKeyboard((RefVar const &,ulong))
 0000:001A2B18       TRootView::UnregisterKeyboard((RefVar const &))
 0000:001A2B8C       TRootView::GetKeyboardIndex((RefVar const &))
 0000:001A2C3C       TRootView::HandleKeyIn((ulong,uchar,TView *))
 0000:001A2D84       TRootView::GetRemoteWriting((void))
 0000:001A2DB0       TRootView::SetRemoteWriting((uchar))
 0000:001A2EA8       TRootView::CaretEnabled((void))
 0000:001A30B4       TXView::DerivedFrom(const(long))
 0000:001A3B1C       FSetPopupX
 0000:001A3DF4       TRosRecognizer::AllocateAndConvertStrokeForRosetta((TStroke *,FPoint **))
 0000:001A3E9C       TRosRecognizer::Classify((TWRecUnit *))
 0000:001A4890       TRosRecognizer::AreaInfoSetParameters((char **))
 0000:001A4930       TRosRecognizer::VerifyWordSymbols((ushort *))
 0000:001A4978       TRosRecognizer::UnitConfidence((TWRecUnit *))
 0000:001A499C       TRosRecognizer::Sleep((void))
 0000:001A4A08       TRosRecognizer::AddRosettaWordsToInterpretation((TWRecUnit *,ulong,char **,ushort *))
 0000:001A53FC       PCirrusBatteryDriver::FastChargeCont((void))
 0000:001A55B8       SetOutputBuffers__18PCirrusSoundDriverFUlN31
 0000:001A5640       TCardSocket::SelectVoltageLevel((TSocketPowerLevels))
 0000:001A5808       ChangeInterruptPriority(InterruptObject *,InterruptPriority)
 0000:001A5868       TAsyncSerTool::ConfigureModemInterrupts((void))
 0000:001A5C50       GetInterruptPriority(InterruptObject *)
 0000:001A5C98       PowerOffAndReboot(long)
 0000:001A5FC8       EnableSysPowerInterrupt(void)
 0000:001A6008       TSerTool::BindToSerChip((void))
 0000:001A608C       TSerTool::UnclaimSerialChip((void))
 0000:001A60D4       TGeoPortDebugLink::GrabSerialPort((uchar))
 0000:001A61A0       TAsyncSerTool::TurnOnSerChip((void))
 0000:001A6738       TClassOneModem::SetSpeakerVolume((uchar))
 0000:001A6AE0       TSerTool::SetSerialChipSpec((TCMOSerialChipSpec *))
 0000:001A6BFC       TSerTool::SetIOParms((TCMOSerialIOParms *))
 0000:001A6C50       TSerTool::ChangeSpeed((ulong))
 0000:001A6D04       TSerTool::KillWakeUp((void))
 0000:001A6D30       TSerTool::SetBreak((uchar))
 0000:001A6D60       TSerTool::SetTxDTransceiverEnable((uchar))
 0000:001A6D94       TSerTool::SetHSKo((uchar))
 0000:001A6DD8       SetSerialOutputs__8TSerToolFUlT1
 0000:001A6E24       TSerTool::GetSerialOutputs((void))
 0000:001A7194       TSerTool::TaskDestructor((void))
 0000:001A745C       PowerOnSystem(void)
 0000:001A77E4       FAirusLookupWord
 0000:001A7824       TFlashRange::LockBlock((ulong))
 0000:001A7A70       TSCPLoader::GetPackage((void))
 0000:001A81E0       SCPLoad__10TSCPLoaderFUlN21
 0000:001A83BC       TSCPLoader::SCPInit((ulong))
 0000:001A8594       TClassOneModem::ProcessTAPICommand((ulong))
 0000:001B32CC       TADC::Init((void))
 0000:001B3444       Alloc__13SSafeHeapPageFlT1
 0000:001B35B8       SSafeHeapPage::Free((void *))
 0000:001B3794       SSafeHeapPage::FreePage((void))
 0000:001B3880       GetNewPageFromPageMgr(void **,ulong *,TPhys **)
 0000:001B3A0C       SWiredHeapPage::FreePage((void))
 0000:001B3AB0       SWiredHeapDescr::GrowByOnePage((void))
 0000:001B3B24       SWiredHeapDescr::ShrinkByOnePage((void))
 0000:001B3E60       TSaveScreenBits::AllocateBuffers((Rect *))
 0000:001B3FD4       TSaveScreenBits::SaveScreenBits((void))
 0000:001B400C       TSaveScreenBits::RestoreScreenBits((Rect *,Region **))
 0000:001B4A48       TransferVerbInfo(TDotPrinter *,uchar,PixelMap ***)
 0000:001B5EA0       TRectToSliderPoly(TRect &)
 0000:001B6334       TSliderView::RealDoCommand((RefVar const &))
 0000:001B65DC       TEditView::TrackScale((TPoint,TStrokePublic *,TRect const &))
 0000:001B6B38       TimeToPosition__FlN31
 0000:001B6B7C       PositionToTime__FlN31
 0000:001B6BB8       LayoutMeeting__FRC6RefVarN41
 0000:001B6DF4       TMeetingView::DerivedFrom(const(long))
 0000:001B6E28       TMeetingView::Constructor((RefVar const &,TView *))
 0000:001B78D4       HandleWord__12TMeetingViewFPCUsUlRC5TRectRC6TPointN22RC6RefVarUcPlP11TUnitPublic
 0000:001B7E88       TParagraphView::SetupDone((void))
 0000:001B864C       TPSPrinter::EmitInsetRect((Rect *,Point))
 0000:001B8970       TSliderView::DerivedFrom(const(long))
 0000:001B8C04       AllowSchedule(void)
 0000:001B8F0C       StopScheduler(void)
 0000:001B8F48       TResistiveTablet::Init((Rect const &))
 0000:001B9280       TScheduler::RemoveHighestPriority((void))
 0000:001B9B04       PScriptDataOut::ParseOutputLength((RefVar const &,FormType,long,long *))
 0000:001B9D38       PScriptDataOut::ParseOutput((RefVar const &,FormType,long,long *,uchar *))
 0000:001B9F4C       treesearch1m5__FPUcT1UlPlT4P6TTNodeT6lP13TLZCompressor
 0000:001BA530       insert_a_node1__FUcP6TTNodeN22lN25P13TLZCompressor
 0000:001BA7E4       TSemaphoreGroup::Init((ulong))
 0000:001BAA38       DoSemaphoreOp
 0000:001BAB44       kfInsertData__10TSoupIndexFP8KeyFieldPvT2
 0000:001BACC4       TSemaphore::Remove((TTask *))
 0000:001BAD0C       TSerialChip16450::TxBufEmpty((void))
 0000:001BAD68       gSCCInitLocalTalkSequence
 0000:001BAD8C       TSerialChip16450::GetRxErrorStatus((void))
 0000:001BADD4       TSerialChip16450::GetSerialStatus((void))
 0000:001BAED0       TSerialChip16450::GetSerialOutputs((void))
 0000:001BAF00       TSerialChip16450::New((void))
 0000:001BB0F0       TSerialChip16450::Reconfigure((void))
 0000:001BB204       TSerialChip16450::ResetState((void))
 0000:001BB3D4       TSerialChip16450::GetByteAndStatus((uchar *))
 0000:001BB408       TSerialChip16450::SetIntSourceEnable((ulong,uchar))
 0000:001BB4A4       TResistiveTablet::WakeUp((void))
 0000:001BB54C       TSerialChip16450::CheckLineStatusReg((void))
 0000:001BB594       TSerialChip16450::CheckModemStatusReg((void))
 0000:001BB600       TSerialChip16450::SerialInterrupt((TCardSocket *))
 0000:001BB6C4       TSerialChip16450::WriteSerReg((ulong,uchar))
 0000:001BB700       TSerialChip16450::ReadSerReg((ulong))
 0000:001BB734       TCardSocket::VppVoltageSpec((void))
 0000:001BB7D8       TSerialChip16450::InstallChipHandler((void *,SCCChannelInts *))
 0000:001BB850       TSerialChip16450::PutByte((uchar))
 0000:001BB914       TSerialChipVoyager::RxBufFull((void))
 0000:001BBAB4       TIrGlue::~TIrGlue((void))
 0000:001BBDE0       TCardServer::DoSysEventPowerOn((TAEvent *))
 0000:001BBEB4       TCardSocket::VccVoltageSpec((void))
 0000:001BC4E4       TEventCollector::Register((void))
 0000:001BC6B4       TPackageIterator::Init((void))
 0000:001BC854       TKeyboardTool::PowerOffEvent((ulong))
 0000:001BCAF4       TSerialChipVoyager::WaitForPacket((ulong))
 0000:001BCB3C       TICHandler::ResetTimer((ulong))
 0000:001BCC5C       rdpWriteARM600Registers
 0000:001BCCB0       TSerialChipVoyager::IRCmdOtherInterrupt((void))
 0000:001BCD4C       GenericCSDraw__FP14CSStrokeHeaderUllN33Uc
 0000:001BCDC4       FlushTheCache
 0000:001BCFD8       TIrDscInfo::~TIrDscInfo((void))
 0000:001BD144       TIrGlue::DeleteDiscoveredDevicesList((uchar))
 0000:001BD47C       TSerialChipVoyager::Reconfigure((void))
 0000:001BD4F4       TKeyboardTool::TurnOnSerChip((void))
 0000:001BD5AC       THermesIRControl::SetResetState((void))
 0000:001BD658       THermesIRControl::THermesIRControl((void))
 0000:001BD83C       PTheSerChipRegistry::FindByOption((TCMOSerialChipSpec *))
 0000:001BD960       ClaimSerialChip__19PTheSerChipRegistryFUlUcT1
 0000:001BDA20       PTheSerChipRegistry::GetDefaultChip((ulong,ulong *))
 0000:001BDB1C       PTheSerChipRegistry::New((void))
 0000:001BDC90       PTheSerChipRegistry::Register((TSerialChip *,ulong))
 0000:001BDD2C       PTheSerChipRegistry::UnRegister((TSerialChip *))
 0000:001BDDBC       PTheSerChipRegistry::SetDefaultChip((ulong,ulong *,uchar))
 0000:001BE298       TPrivatePackageIterator::CheckHeader((void))
 0000:001BE6BC       TSerialEndpoint::HandleComplete((TUMsgToken *,ulong *,TAEvent *))
 0000:001BE7D0       __ct__11TCommToolPBFUlT1Uc
 0000:001BED78       TSerialEndpoint::WaitForEvent((ulong))
 0000:001BEE40       TSerialEndpoint::nBind((TOptionArray *,ulong,uchar))
 0000:001BF054       TSerialEndpoint::nListen((TOptionArray *,CBufferSegment *,long *,ulong,uchar))
 0000:001BF28C       TSerialEndpoint::nAccept((TEndpoint *,TOptionArray *,CBufferSegment *,long,ulong,uchar))
 0000:001BF74C       TSerialEndpoint::SendDisconnect((TCommToolDisconnectPB *,ulong,uchar))
 0000:001BF864       nDisconnect__15TSerialEndpointFP14CBufferSegmentlT2UlUc
 0000:001BF980       TSerialEndpoint::nRelease((ulong,uchar))
 0000:001BFB5C       TSerialEndpoint::nUnBind((ulong,uchar))
 0000:001C036C       TSerialEndpoint::nRcv((CBufferSegment *,long,ulong *,ulong,uchar,TOptionArray *))
 0000:001C0914       TSerialEndpoint::HandleControlReply((TCommToolControlPB *))
 0000:001C09B0       TSerialEndpoint::HandleEventReply((TCommToolEventPB *))
 0000:001C11E8       TSerialEndpoint::RecvBytes((TCommToolGetPB *,long *,long,ulong *,ulong,uchar,TOptionArray *))
 0000:001C13A0       TSerialEndpoint::PostEventRequest((TCommToolEventPB *))
 0000:001C141C       TSerialEndpoint::PostKillRequest((ulong,uchar))
 0000:001C14DC       TSerialEndpoint::PrepareAbort((ulong,uchar))
 0000:001C160C       TSerialEndpoint::NukePending((void))
 0000:001C1B2C       TSerialEndpoint::KillKillKill((ulong,TUAsyncMessage *))
 0000:001C28D0       FAirusIteratorMake
 0000:001C2C50       PSerialOutTranslator::Print((char const *,...))
 0000:001C30C4       Init__20CShadowBufferSegmentFUllT2
 0000:001C3114       RegisterName__12TUNameServerFPcT1UlT3
 0000:001C326C       Textension::UpdateRangeRulers((TXOffsetRange const &,TXAttrValues const *,long))
 0000:001C33D0       CShadowRingBuffer::TempGetn((uchar *,long))
 0000:001C3528       CShadowRingBuffer::Put((int))
 0000:001C3588       EqualPat__FPP8PixelMapT1
 0000:001C3E04       ConvertMemOrMsgIdToObj(ulong,TSharedMem **)
 0000:001C41E0       LowLevelCopyDoneFromKernelGlue
 0000:001C42A8       TaskInCopyKilled(void *,TTask *)
 0000:001C42E0       SMemSetBufferKernelGlue
 0000:001C4330       SMemGetSizeKernelGlue
 0000:001C44B8       SMemMsgSetMsgAvailPortKernelGlue
 0000:001C45CC       SMemMsgMsgDoneKernelGlue
 0000:001C4654       SMemMsgCheckForDoneKernelGlue
 0000:001C47B4       TSharedMemMsg::TSharedMemMsg((void))
 0000:001C4938       TSharedMemMsg::CompleteMsg((uchar,ulong,long))
 0000:001C4AA4       TSharedMemMsg::~TSharedMemMsg((void))
 0000:001C4FF4       TSharpIRTool::FillOutputBuffer((void))
 0000:001C51B8       TSharpIRTool::PrepDataPacket((void))
 0000:001C56C0       TSharpIRTool::ReceiveLeadIn((void))
 0000:001C5738       TSharpIRTool::ReceiveControl((uchar))
 0000:001C5A6C       TSharpIRTool::ReceiveData((void))
 0000:001C5D24       TSharpIRTool::CheckReceiveDone((void))
 0000:001C5F18       TSharpIRTool::ReceiveNegotiate((uchar))
 0000:001C6A3C       ScalePt__FP5PointP4RectT2
 0000:001C6AC8       blackMakeupTbl
 0000:001C6FD4       TSharpIRTool::ResetStateMachine((void))
 0000:001C7634       TSniffIRTool::NextState((TSniffIRTool::IRSniffEvent))
 0000:001C77E0       TIRQTimer::IRQTimerInterrupt((void))
 0000:001C7DFC       CSortedList::Search((CItemTester *,long &))
 0000:001C8034       TSoundChannel::FreeNode((ChannelNode *,long,int))
 0000:001C841C       TSoundChannel::Cancel((TUSoundNodeRequest *))
 0000:001C8594       TSoundChannel::Stop((TUSoundNodeReply *,long))
 0000:001C87DC       TCardHandler::FormatCIS((TCardSocket *,TCardPCMCIA *))
 0000:001C8984       FPlaySound__FRC6RefVarT1
 0000:001C8A68       FClicker
 0000:001C8C8C       LocalSoundChannel(RefVar const &)
 0000:001C8E38       FSoundSchedule
 0000:001C910C       TPickView::RealDoCommand((RefVar const &))
 0000:001C9164       FGetChannelVolume
 0000:001C91BC       FindEnvironmentId__13MemObjManagerSFUlPUl
 0000:001C91D8       TXRulerBitMapCluster::PointToBitMapIndex(const(Point))
 0000:001C9B24       TSerialChipVoyager::ConfigureIRChip((uchar))
 0000:001C9DF4       TCardProcessor::DoCommand((TUMsgToken *,ulong *,TCardMessage *,uchar))
 0000:001C9FEC       TSoundServer::MainDestructor((void))
 0000:001CA08C       TSoundServer::TheMain((void))
 0000:001CA478       TPAPInterface::~TPAPInterface((void))
 0000:001CA5A0       TSoundServer::StartOutput((int))
 0000:001CA644       TSoundServer::StopOutput((int))
 0000:001CA6A4       TSoundServer::ScheduleOutputBuffer((void))
 0000:001CA9F8       TFlashStore::Format((void))
 0000:001CAA28       THermesIRControl::GetCmdByteCount((void))
 0000:001CAA38       TExtPageTrackerMgr::DoDeferral((void))
 0000:001CAA78       PCirrusSoundDriver::StopOutput((void))
 0000:001CAABC       PSoundDriver::OutputIntHandlerDispatcher((void))
 0000:001CADF4       GetNameFromDebugHash(RefVar const &)
 0000:001CAF34       DebugHashValue(RefVar const &)
 0000:001CAFB4       FindForm__FRC6RefVarT1
 0000:001CB530       FDV
 0000:001CB5D0       FQuickLookDone
 0000:001CB704       GetLastAddedWordView(void)
 0000:001CB7F4       FDragX
 0000:001CB8C0       FOffsetView
 0000:001CB940       FRedoChildrenX
 0000:001CBA4C       FSyncChildrenX
 0000:001CBB3C       FSyncScrollX
 0000:001CBB9C       FMoveBehindX
 0000:001CBC64       FChildViewFramesX
 0000:001CBC7C       FSyncViewX
 0000:001CBDFC       CommonBox(RefVar const &,TRect *)
 0000:001CBE98       FGlobalBoxX
 0000:001CBF4C       FGlobalOuterBoxX
 0000:001CBF7C       FVisibleBox
 0000:001CBFE0       FLayoutVerticallyX
 0000:001CC19C       FLayoutTableX
 0000:001CCB04       FDeleteX
 0000:001CCB9C       FStrFontWidth__FRC6RefVarN21
 0000:001CCC78       FEffectX
 0000:001CCD58       FSlideEffectX
 0000:001CCE3C       FRevealEffectX
 0000:001CCF3C       FDoScrubEffect__FRC6RefVarT1
 0000:001CCFC4       DrawSetPen(RefVar const &)
 0000:001CD0BC       FDrawPolygons
 0000:001CD24C       FSetOriginX
 0000:001CD2D8       FSetupIdleX
 0000:001CD330       FKeyboardInputX
 0000:001CD3C4       TruncateText(ushort *,ulong,long,StyleRecord *)
 0000:001CD490       FFindStringInArray__FRC6RefVarN21
 0000:001CD8A8       FFileUnfiled
 0000:001CD98C       FPositionToTime__FRC6RefVarN21
 0000:001CD9F8       FTimeToPosition__FRC6RefVarN21
 0000:001CDA64       FPointToCharOffset
 0000:001CDB24       FPointToWord
 0000:001CDC8C       FHiliteViewChildren
 0000:001CDCCC       FHiliter
 0000:001CDD24       FStrTruncate__FRC6RefVarN21
 0000:001CDD90       FComputeParagraphHeight
 0000:001CE0D0       FKeyHelpSlipDraw
 0000:001CE6B8       FAutoShutDown
 0000:001CE728       FStyledStrTruncate__FRC6RefVarN31
 0000:001CE92C       FStrWidth__FRC6RefVarT1
 0000:001CE984       SetFontFace(RefVar const &,long)
 0000:001CE9C4       GetLastAddedWordBox(void)
 0000:001CEC40       GetLastAddedWordBase(void)
 0000:001CEC4C       FGetDefaultFont__FRC6RefVarT1
 0000:001CEC64       FLockScreen
 0000:001CEC9C       FDoDrawing
 0000:001CEE08       FGetView__FRC6RefVarT1
 0000:001CEEFC       FNextKeyView
 0000:001CF048       FSetRemoteWriting
 0000:001CF084       FGetRemoteWriting
 0000:001CF0B0       UnitFromRef(RefVar const &)
 0000:001CF18C       FVoteOnWordUnit
 0000:001CF3AC       FMatchedChar
 0000:001CF428       FGetStyleAtOffset
 0000:001CF470       FCaretRelativeToVisibleRect
 0000:001CF510       FExtractRangeAsRichString
 0000:001CF584       FExtractTextRange
 0000:001CF71C       StrokeFromRef(RefVar const &)
 0000:001CF750       ComputeLineBounds__8LineLoopFlN51P5TRect
 0000:001CF9B0       FClipboardCommand
 0000:001CFC9C       FPositionCaret
 0000:001CFFA4       FailGetView(RefVar const &)
 0000:001D0020       FTieViews__FRC6RefVarN31
 0000:001D0280       CommonAddView__FRC6RefVarN31
 0000:001D03A0       FailGetView__FRC6RefVarT1
 0000:001D03D0       CommonRemoveView__FRC6RefVarN31
 0000:001D0638       FDrawMeetingGrid__FRC6RefVarT1
 0000:001D0A74       FTrackHiliteX
 0000:001D1288       FailGetParagraphView(RefVar const &)
 0000:001D12D8       FClearPopup
 0000:001D1308       FormatVertical__FRC6RefVarN21
 0000:001D1580       FAnimateSimpleStroke__FRC6RefVarN31
 0000:001D1930       RealOpenX(RefVar const &,uchar)
 0000:001D1BF4       FToggleX
 0000:001D1D24       FHideX
 0000:001D1DA8       FGetStylesOfRange
 0000:001D1E48       FDrawDateLabels__FRC6RefVarN21
 0000:001D26D0       CFInstantiate
 0000:001D28C4       REPTime(void)
 0000:001D29B0       gREPin
 0000:001D303C       TBIOInterface::UpdateInterruptFlags((KeynesIntObject *,ulong))
 0000:001D30E0       TResistiveTablet::ShutDown((void))
 0000:001D3374       TStackManager::FMFree((FM_Free_Parms *))
 0000:001D3480       TStackManager::FMNewHeapArea((FM_NewHeapArea_Parms *))
 0000:001D3AEC       TStackManager::FMGetSystemReleaseable((FM_GetSystemReleaseable_Parms *))
 0000:001D3CD8       FreeSubPagesBelow__13TStackManagerFP10TStackInfoUlUcPUlT3
 0000:001D3D10       FreeSubPagesAbove__13TStackManagerFP10TStackInfoUlUcPUlT3
 0000:001D3D4C       FreeSubPagesBetween__13TStackManagerFP10TStackInfoUlT2UcPUlT4
 0000:001D3F74       FindOrAllocPage_ReturnUnLockedOnNoPage__13TStackManagerFP10TStackInfoUlT2
 0000:001D407C       TDMAManager::RequestAssignment((ulong,TDMAChannelDiscriptor *))
 0000:001D4878       TMNP::ResetLink((void))
 0000:001D4F88       NewStack
 0000:001D4FE0       NewHeapArea
 0000:001D502C       SetRemoveRoutine
 0000:001D505C       AddPageMappingToDomain
 0000:001D508C       GetHeapAreaInfo
 0000:001D531C       UnlockHeapRange
 0000:001D535C       FreePagedMem
 0000:001D538C       NewHeapDomain
 0000:001D53CC       RegisterPageMonitor__15TUDomainManagerSFv
 0000:001D53FC       GetSystemReleasable
 0000:001D545C       THeapDomain::THeapDomain((void))
 0000:001D54A8       TStackManager::GetStackInfo((ulong))
 0000:001D5678       TStackManager::GetMatchingDomain((ulong))
 0000:001D56C4       TStackManager::GetDomainForAddress((ulong))
 0000:001D5AAC       TStackObject::AEHandlerProc((TUMsgToken *,ulong *,TAEvent *))
 0000:001D5DB8       DistPoint__FP6FPointT1
 0000:001D5E88       PStdioInTranslator::Init((void *))
 0000:001D5F0C       PHammerInTranslator::ProduceFrame((int))
 0000:001D5FCC       PStdioOutTranslator::EnterBreakLoop((int))
 0000:001D6084       PStdioOutTranslator::Prompt((int))
 0000:001D6088       PStdioOutTranslator::Flush((void))
 0000:001D60C8       PStdioOutTranslator::Print((char const *,...))
 0000:001D6198       CStdioPipe::WriteSeek((long,int))
 0000:001D636C       CStdioPipe::WriteChunk((void *,long,uchar))
 0000:001D63D0       CStdioPipe::Flush((void))
 0000:001D6408       CStdioPipe::Reset((void))
 0000:001D6450       CStdioPipe::ReadSeek((long,int))
 0000:001D649C       Read__24TSimpleStoreDecompressorFUlPclT1
 0000:001D65E0       Read__25TLZRelocStoreDecompressorFUlPclT1
 0000:001D683C       TLZStoreCompander::Delete((void))
 0000:001D6890       Init__17TLZStoreCompanderFP6TStoreUlT2UcT4
 0000:001D69A8       Read__17TLZStoreCompanderFUlPclT1
 0000:001D6A7C       Write__17TLZStoreCompanderFUlPclT1
 0000:001D6BE0       Read__21TSimpleStoreCompanderFUlPclT1
 0000:001D6C94       Write__21TSimpleStoreCompanderFUlPclT1
 0000:001D6DAC       TStoreCompanderWrapper::Delete((void))
 0000:001D6E34       Init__22TStoreCompanderWrapperFP6TStorePcUlT3
 0000:001D6EE8       Read__22TStoreCompanderWrapperFUlPclT1
 0000:001D6F98       LOTransactionHandler::EndIndexTableTransaction((uchar,TStore *,ulong))
 0000:001D707C       Read__20TLZStoreDecompressorFUlPclT1
 0000:001D7140       DoRDP
 0000:001D7314       GetSharedLZObjects(TCompressor **,TDecompressor **,char **,long *)
 0000:001D7418       ReleaseSharedLZObjects(TCompressor *,TDecompressor *,char *)
 0000:001D7460       InitializeStoreDecompressors(void)
 0000:001D7534       TZippyRelocStoreDecompressor::Delete((void))
 0000:001D75D8       Read__28TZippyRelocStoreDecompressorFUlPclT1
 0000:001D7710       TZippyStoreDecompressor::Delete((void))
 0000:001D77B8       Read__23TZippyStoreDecompressorFUlPclT1
 0000:001D7A74       DoPersistentCopy__12TStoreDriverFUlT1
 0000:001D7C28       Copy__12TStoreDriverFUlN21
 0000:001D7E80       FPidToPackageLite
 0000:001D81BC       FSuckPackageOffDeskTop
 0000:001D851C       FPidToPackage
 0000:001D8610       FGetPackages(RefVar const &)
 0000:001D8A60       TStorePackageWriter::WriteCompressedData((void *,long))
 0000:001D8AE0       TStorePackageWriter::WriteChunk((char *,long,uchar))
 0000:001D8D48       TStorePackageWriter::Abort((void))
 0000:001D8DC0       TStorePackageWriter::Flush((void))
 0000:001D9218       FStrEqual__FRC6RefVarN21
 0000:001D9308       FStrExactCompare__FRC6RefVarN21
 0000:001D93A4       FStrConcat__FRC6RefVarN21
 0000:001D9428       FSubstituteChars
 0000:001D9680       FStringFilter
 0000:001D9AB0       FStrLen__FRC6RefVarT1
 0000:001D9B4C       FSmartConcat__FRC6RefVarN31
 0000:001D9CD8       exInterpreterWithFrameData
 0000:001D9F9C       FSmartStop__FRC6RefVarN21
 0000:001D9FF0       FStringer__FRC6RefVarT1
 0000:001DA124       ParamStrParse__FP11TRichStringlUcT3RC6RefVar
 0000:001DA4E0       FParamStr__FRC6RefVarN21
 0000:001DA59C       RecurseFindStringInFrame__FRC6RefVarN21RC11TRichStringl
 0000:001DAA10       StrPosition__FRC6RefVarT1l
 0000:001DAC38       FExtractData__FRC6RefVarN31
 0000:001DAD70       FDecodeRichString__FRC6RefVarN21
 0000:001DAE38       FStringFormat
 0000:001DAE78       FGetRichString(RefVar const &)
 0000:001DAEEC       FGetChar
 0000:001DAF78       FSetChar
 0000:001DB1B8       FStripInk
 0000:001DB2D0       AllocatePatchRAM__FUlT1
 0000:001DB354       FIsValidString
 0000:001DB424       ReadRefDictionary(RefVar const &)
 0000:001DB630       FMeasuredNumberStr
 0000:001DB7A0       FNumberStr__FRC6RefVarT1
 0000:001DB8B4       StrEmpty(RefVar const &)
 0000:001DB940       MakeStringPtr(ushort *,ulong)
 0000:001DB97C       MakeStringHandle(ushort *,ulong)
 0000:001DB9D0       SetupDistances(void)
 0000:001DBD70       StrokeGet(void)
 0000:001DBF5C       AcquireStroke(TStroke *)
 0000:001DBFA4       RealStrokeTime(void)
 0000:001DC1FC       InitHiliteState__FP7TStrokeP17StrokeHiliteStateT2
 0000:001DC2EC       RealStrokeInit(void)
 0000:001DC6F4       UnbufferStroke(TStroke *)
 0000:001DC7B8       StrokeReInit(void)
 0000:001DCAF4       ExtendedGestalt
 0000:001DD8B0       Fremquo
 0000:001DDCB0       GetActualHeapInfo__FPvPPvT2PlT4
 0000:001DDD94       FGetHeapStats
 0000:001DEAFC       FMinimumBatteryCheck
 0000:001DEBC4       TT4FaxLine::DoMHDecodeLine((uchar *,int,int &))
 0000:001DECB8       TT4FaxLine::EmitBits((TT4FaxLine::RunColor,int,int *))
 0000:001DEDFC       TT4FaxLine::MHGetNextCode((TT4FaxLine::RunColor))
 0000:001DEE24       kMajorIndexWhite
 0000:001DEF00       kMajorIndexBlack
 0000:001DEF04       TT4FaxLine::GetNextBit((void))
 0000:001DEFA8       exFaxBufOverrunException
 0000:001DEFAC       TT4FaxLine::GetBits((int))
 0000:001DF120       TT4FaxLine::SkipPastEOL((void))
 0000:001DF1C0       TT4FaxLine::DecodeLine((uchar *,int,int &,ulong))
 0000:001DF2E0       TSerTool::UnbindStart((void))
 0000:001DF434       EncodeT4(uchar *,int,int,int,int,int,int)
 0000:001DFE80       TADSPConnection::SendControl((void))
 0000:001E00E0       WordRecogReset
 0000:001E0184       TADSPConnection::CheckSendData((void))
 0000:001E06C4       TADSPConnection::ProcessAck((ADSPHeader *))
 0000:001E07BC       TADSPConnection::OpenComplete((void))
 0000:001E0974       TADSPConnection::DoClose((long))
 0000:001E0A44       TADSPConnection::DoCloseAdvice((ADSPHeader *))
 0000:001E0E2C       __ct__14TAgentReporterFUlN21
 0000:001E0E70       TAgentReporter::~TAgentReporter((void))
 0000:001E0F04       AgentReportError__14TAgentReporterFPcT1l
 0000:001E0F78       TAgentReporter::AgentReportStatus((long,char *))
 0000:001E10B0       a_____DErrorsRe
 0000:001E1128       a______________
 0000:001E11C0       TAgentReporter::ReportMemoryInfo((void))
 0000:001E15E4       UnionStrokes__FP7TDArrayT1UlT1PUlT5
 0000:001E2464       InitArbiterState(TArbiter *)
 0000:001E28E4       ArbiterGetUnitStrokes(TSIUnit *,TDArray *)
 0000:001E3684       TArray::TArray((void))
 0000:001E36D0       TArray::SizeInBytes((void))
 0000:001E39AC       TController::Dispose((void))
 0000:001E3C2C       Make__6TArraySFUlT1
 0000:001E3C88       TArray::Dump((TMsg *))
 0000:001E3CF4       IArray__6TArrayFUlT1
 0000:001E3E90       __ct__11TCommServerFUcT1PUc
 0000:001E3EE8       TCommServer::SendChunk((void *,long,uchar))
 0000:001E40B0       TCommServer::GetResponse((long *))
 0000:001E41A4       TCommServer::ReadChunk((void *,long,uchar))
 0000:001E425C       TCommServer::ReadString((char *,ulong,uchar))
 0000:001E430C       TCommServer::FlushPadding((ulong))
 0000:001E43D8       TCommServer::SetBusy((uchar))
 0000:001E43E4       TCommServer::IsBusy((void))
 0000:001E43EC       SetTestServerName__11TCommServerFPcT1
 0000:001E442C       TCommServer::ConnectToTestServer((TEzEndpointPipe **))
 0000:001E46C0       Make__11TControllerSFv
 0000:001E47AC       TController::ClassifyInArea((TUnit *,TRecArea *))
 0000:001E48E0       SpecialGetAreasHit(TUnit *,TArray *)
 0000:001E4A08       TController::RecognizeInArea((TArray *,TRecArea *,ulong (*)(TUnit *,ulong),ulong))
 0000:001E4F5C       InitControllerState(TController *)
 0000:001E5258       TController::Idle((void))
 0000:001E535C       TController::TriggerRecognition((void))
 0000:001E57AC       TController::IController((void))
 0000:001E5808       TController::DoClassify((void))
 0000:001E5ECC       GetUList__11TControllerFP7TDomainUlN22
 0000:001E6088       TRecArea::IDispose((void))
 0000:001E6484       TController::CheckBusy((void))
 0000:001E64A4       TController::UpdateInk((FRect *))
 0000:001E6574       CleanupStrayInk(FRect *)
 0000:001E65BC       SaveRecognitionState(TController *,uchar *)
 0000:001E66C0       TController::SignalMemoryError((void))
 0000:001E6710       TController::CleanupAfterError((void))
 0000:001E6824       OnlyStrokeWritten(TStrokeUnit *)
 0000:001E6960       TController::GetClickInProgress((void))
 0000:001E6CB8       ClickInProgress(TUnit *)
 0000:001E6E50       TController::Initialize((void))
 0000:001E7018       TDArray::TDArray((void))
 0000:001E716C       Make__7TDArraySFUlT1
 0000:001E71C8       IDArray__7TDArrayFUlT1
 0000:001E73B8       TDictChain::TDictChain((void))
 0000:001E7610       TDomain::TDomain((void))
 0000:001E7674       TDomain::Dump((TMsg *))
 0000:001E7768       TDomain::DumpName((TMsg *))
 0000:001E77E8       DomainParameter__7TDomainFUlN21
 0000:001E7910       Make__7TDomainSFP11TControllerUlPc
 0000:001E794C       TDomain::IDomain((TController *,ulong,char *))
 0000:001E7A48       TDotPrinter::CalcMinBounds((PixelMap const *,long,Rect *))
 0000:001E7C10       TryAllocBands__11TDotPrinterFPPclT2
 0000:001E7C7C       TDotPrinter::FaxEndPage((long))
 0000:001E7CBC       TDotPrinter::Constructor((char *))
 0000:001E7DE0       TDotPrinter::Open((RefVar const &))
 0000:001E80CC       TDotPrinter::Close((void))
 0000:001E8D34       TDotPrinter::ClosePage((void))
 0000:001E91B4       Collapse2(TDArray *)
 0000:001E9448       TEdgeListDomain::Classify((TUnit *))
 0000:001E961C       TEdgeListDomain::FindCorners((TUnit *))
 0000:001E9840       TEdgeListUnit::Dump((TMsg *))
 0000:001E997C       TEdgeListUnit::IEdgeListUnit((TDomain *,ulong,TArray *))
 0000:001EA46C       TFaxDriver::ImageBand((PixelMap *,Rect const *))
 0000:001EA850       ReleaseBilin(Bilinear *)
 0000:001EA8A4       InitFunction(long,MixFunc *,Bilinear *)
 0000:001EA9F4       TheFunction__FlPlT2
 0000:001EAB38       TheGradient__FlPlN22
 0000:001EACF8       MapSolutionToBounds(long *,long,FRect const &)
 0000:001EAD90       SquareLinear(Linear *,Bilinear *)
 0000:001EB0D4       ReleaseGradient(MixGradEl *)
 0000:001EB25C       CheckClosed(TStrokeUnit *)
 0000:001EB2D4       CheckPtOnCircle__FPP6FPointP17TGeneralShapeUnitT2
 0000:001EB40C       CheckPtOnShape__FPP6FPointP17TGeneralShapeUnitT2
 0000:001EB6B8       PtOnLine2__FP6FPointN21lPl
 0000:001EBDD8       TGeneralShapeDomain::Classify((TUnit *))
 0000:001EC66C       CheckScreenGlobals(void)
 0000:001EC90C       CircleParams(TGeneralShapeUnit *,FPoint *,long *)
 0000:001EDC00       SetGeneralPt__FP7TDArrayUl6FPointUcN24
 0000:001EE144       RLineOut__FP6FPointPcPUlP3RunlUlT6
 0000:001EECDC       TVStrTail__FUlP6FPointT2PcPUlP9SplineSegT4l
 0000:001EEE44       ScaleToSize(FPoint *,long)
 0000:001EF0BC       SameAngle__F6FPointT1l
 0000:001EF11C       FindInflection__FUcP9SplineSegUlPcT4T2
 0000:001EF610       DoConic(SplineSeg *)
 0000:001EF7AC       DoConicInfl__FUcP9SplineSegT2
 0000:001EFB94       DeleteStrokes(ulong,char,ulong *,FPoint *,char *,FPoint *)
 0000:001F0178       MeetEnds__FUlT1P9SplineSegP7TDArray
 0000:001F0604       IntersectLine__FP6FPointN41
 0000:001F0B30       PtOnCircle(FPoint *,TGeneralShapeUnit *,long *)
 0000:001F0B8C       CircleTan__FP17TGeneralShapeUnitT1P6FPointT3lT5
 0000:001F0F20       TGeneralShapeDomain::IGeneralShapeDomain((TController *))
 0000:001F1584       TGeneralShapeUnit::NewInterpretation((TDArray *))
 0000:001F18E4       TGeneralShapeUnit::GetEllipseAsStroke((void))
 0000:001F19A8       displayAngle
 0000:001F1DCC       TGeneralShapeUnit::SizeInBytes((void))
 0000:001F1EB8       GetAvgLength(TGeneralShapeUnit *)
 0000:001F2090       TGeneralShapeUnit::IDispose((void))
 0000:001F216C       DisposeFD(TGeneralShapeUnit *)
 0000:001F21D4       TGeneralShapeUnit::DoneUsingUnit((void))
 0000:001F24D8       TInker::IInker((void))
 0000:001F261C       DrawInk__6TInkerF5PointT1P4Rects
 0000:001F3F88       TBusyBox::DoCommand((long))
 0000:001F4190       TXRulerIconsBar::Draw((void))
 0000:001F451C       Minimize__FPllT2N21PFlPlT2_lPFlPlN22_v
 0000:001F48A0       Func1D__FlT1PlT3PFlPlT2_lT3
 0000:001F4910       DFunc1D__FlT1PlT3PFlPlN22_vT3
 0000:001F52C4       TMsg::MsgHex((ulong,long))
 0000:001F53AC       TMsg::MsgPrintf((void))
 0000:001F543C       TMsg::MsgFile((char *,ulong))
 0000:001F5510       TMsg::IMsg((void))
 0000:001F5588       TMsg::MsgStr((char *))
 0000:001F56C0       TMsg::MsgNum((ulong,long))
 0000:001F5754       TPSPAPDriver::IsProblemResolved((void))
 0000:001F5C90       TPSPAPDriver::GetPAPStatus((void))
 0000:001F5CDC       TPSPAPDriver::GetStatus((void))
 0000:001F5D74       TPSPAPDriver::InterpretPAPStatusString((TString255 *,uchar))
 0000:001F5DAC       TPSPAPDriver::InterpretPAPString((char *,uchar))
 0000:001F5EA8       gPSStatusStringsLimit
 0000:001F5F80       TPSPrinter::GetDocTitle((RefVar const &,char *))
 0000:001F60B0       TPSPrinter::GetUserName((RefVar const &,char *))
 0000:001F6114       TPSPrinter::HandleError((long))
 0000:001F6194       TPSPrinter::MakeTextPSFriendly((char *))
 0000:001F6200       TPSPrinter::CancelJob((uchar))
 0000:001F6234       TPSPrinter::Open((RefVar const &))
 0000:001F636C       DeallocatePackage(TStore *,ulong)
 0000:001F6538       SetupFontMapping__10TPSPrinterFRC6RefVarT1
 0000:001F6A28       TPSPrinter::SendPSBinary((char *,ulong))
 0000:001F6ABC       TPSPrinter::Close((void))
 0000:001F6B54       TPSPrinter::ClosePage((void))
 0000:001F6BB4       gClosePageHeader
 0000:001F6BB8       TPSPrinter::Constructor((char *))
 0000:001F6CA0       TPSPrinter::ContinueIO((void))
 0000:001F6D9C       TPSPrinter::DoHandleProblem((long))
 0000:001F7424       Make__8TRecAreaSFUlT1
 0000:001F74E0       TController::BuildGTypes((TRecArea *))
 0000:001F76A8       TRecArea::GetInfoFor((ulong,uchar))
 0000:001F77AC       TRecArea::Dispose((void))
 0000:001F7868       Make__9TAreaListSFv
 0000:001F7948       TAreaList::Clone((void))
 0000:001F7AD4       UnitsHitSameArea__FP5TUnitT1
 0000:001F7C20       AddAType__8TRecAreaFUlPFP6TArray_UlT1P8dInfoRec
 0000:001F7CA0       TRecObject::TRecObject((void))
 0000:001F7D04       TRecObject::~TRecObject((void))
 0000:001F80AC       TSIUnit::TSIUnit((void))
 0000:001F8124       TSIUnit::AddSub((TUnit *))
 0000:001F863C       TSIUnit::OpenInterpList((void))
 0000:001F867C       InitInterpretation__FP18UnitInterpretationUlT2
 0000:001F8A38       TSIUnit::Dump((TMsg *))
 0000:001F8C10       DatesInMonthString(long,ushort *)
 0000:001F90E0       TSIUnit::SizeInBytes((void))
 0000:001F9318       TSWGroupDriver::GetStatus((void))
 0000:001F9588       TSWGroupDriver::ImageBand((PixelMap *,Rect const *))
 0000:001F97C4       TSWGroupDriver::InitializeConnection((void))
 0000:001F9CD8       TSWGroupDriver::Receive((char *,long))
 0000:001F9E70       TSWGroupDriver::StillPrinting((void))
 0000:001F9EEC       TSWGroupDriver::UpdateFreeBuff((void))
 0000:001FA098       TPolygonView::SetArcBounds((TRect const &))
 0000:001FA0B8       TSWGroupDriver::ConnectToPrinter((void))
 0000:001FA130       TSWGroupDriver::DoHandleProblem((void))
 0000:001FA228       ValidTurnSequence(TurnData *)
 0000:001FA4D4       Interpolate__FP6FPointT1lT1
 0000:001FA548       TestCarets(TDArray *,UnitInterpretation *)
 0000:001FA94C       TClickUnit::Dump((TMsg *))
 0000:001FAAE8       TClickEventUnit::Dump((TMsg *))
 0000:001FAF5C       Make__10TClickUnitSFP7TDomainUlP7TStrokeP6TArray
 0000:001FAFE8       TClickUnit::IClickUnit((TDomain *,ulong,TStroke *,TArray *))
 0000:001FB0DC       GetInterpretationsCopy(TStdWordUnit *)
 0000:001FB378       GetWordBase__12TStdWordUnitFP6FPointT1Ul
 0000:001FD100       TraceContour(TArray *,FPoint *)
 0000:001FD1CC       ooops(void)
 0000:001FD1D0       GetQuadPoint__FP6FPointT1
 0000:001FD948       MakeEllipseTemplate__FP5FRectPlP6FPointN23N42
 0000:001FE2F0       SetPoint(SamplePt *,FPoint *)
 0000:001FE3FC       Make__7TStrokeSFUl
 0000:001FE520       TStroke::IDispose((void))
 0000:001FE658       TStroke::AddPoint((TabPt *))
 0000:001FEC34       TStroke::Map((FRect *))
 0000:001FF058       Make__8TSStrokeSFUl
 0000:001FFED4       AlignRotEqs(AngCluster *,long,TDArray *,SideMap *,EqSystem *)
 0000:00200360       FamilyRotEqs(AngCluster *,long,uchar,uchar,TDArray *,SideMap *,uchar *,EqSystem *,long *)
 0000:00200A94       FamilyReflEqs(AngCluster *,long,uchar,uchar,TDArray *,uchar *,EqSystem *)
 0000:00200D8C       FindCoords__FlUcT1P7TDArrayPlT5
 0000:00200E54       NewCoeffs(EqSystem *)
 0000:00201048       DirSumEqs__FlP7SideMapP10AngClusterPUcT4P8EqSystem
 0000:002019EC       GenSumEqs(long,long *,long *,EqSystem *)
 0000:00201ABC       Inserter__FlN21PlPUcT4P10AngClusterP6TTrendT1P7SideMap
 0000:00201E6C       PlugNewVals(TGeneralShapeUnit *,long *,EqSystem *)
 0000:0020236C       RelateAngs(long *,AngCluster *,long,SideMap *)
 0000:00202780       MergeClusters(long,long *,AngCluster *,long *,SideMap *)
 0000:002029E8       TTestAgent::ForkConstructor((TForkWorld *))
 0000:00202A20       Setup__10TTestAgentFPcT1
 0000:00202B38       TTestAgent::StartCTestCase((void))
 0000:00202DA4       TTestAgent::ProcessTestServerCommand((ulong,long))
 0000:002033D4       TTestAgent::MakeTestStore((uchar))
 0000:002034D8       TTestAgent::StoreTestCommand((ulong))
 0000:0020359C       StoreTestOrDataFile__10TTestAgentFUlT1
 0000:0020370C       TTestAgent::DoDropConnection((void))
 0000:002037CC       TTestAgent::AllocateATestReporter((TAgentReporter **))
 0000:00203828       TTestAgent::ProcessTestMgrParameters((long))
 0000:002038C0       TTestAgent::AEHandlerProc((TUMsgToken *,ulong *,TTestAgentEvent *))
 0000:002043C8       TTestAgent::IdleProc((void))
 0000:00204654       gtspsPartHandler
 0000:00204750       TTestAgent::AgentReportDirect((ulong,char *))
 0000:002047A0       TTestAgent::StartACardTestCase((void))
 0000:00204D58       TtstpPart::Install((PartId const &,SourceType,PartInfo *))
 0000:00204E08       FActivateTestAgent
 0000:00205030       FDeactivateTestAgent
 0000:002050E0       DoNewtCTestCase(TClassInfo *,char *)
 0000:002052CC       TNewtTestScriptEventHandler::AEHandlerProc((TUMsgToken *,ulong *,TAEvent *))
 0000:00205E10       FTestReportMessage
 0000:00205F1C       FStdioOn
 0000:00205F34       FStdioOff
 0000:00206174       FTestFlushReportQueue
 0000:0020619C       FTestMSetParameterString
 0000:00206290       TTestAgent::TTestAgent((void))
 0000:0020633C       FTestExit
 0000:0020637C       FTestMStartTestFrame
 0000:002067D8       FTestMGetReportMsg
 0000:0020685C       ReplaceSpacesInString(char *,char)
 0000:002068A0       RecoverSpacesInString(char *,char)
 0000:00206970       TTestAgent::MainConstructor((void))
 0000:00206E1C       FileNamesEqual__18TTestStoreFileListFPcT1
 0000:002071A8       Get__18TTestStoreFileListFPcPPcPUlUlT4
 0000:002072FC       TTestStoreFileList::DeleteAll((void))
 0000:002074E0       TTestCaseTask::MainDestructor((void))
 0000:00207564       Init2__13TTestCaseTaskFUlP10TClassInfoP14TAgentReporterPcT4
 0000:00207620       TTestCaseTask::GetAgrcArgv((short *,char **))
 0000:00207714       TTestCaseTask::AEHandlerProc((TTestCaseTaskEvent *))
 0000:00207814       TTestCaseTaskEventHandler::AEHandlerProc((TUMsgToken *,ulong *,TAEvent *))
 0000:002078A8       __ct__13TTestReporterFUlN21
 0000:00207900       TTestReporter::~TTestReporter((void))
 0000:002079D8       TestReportError__13TTestReporterFPcT1l
 0000:00207AD4       TestReportErrorValues__13TTestReporterFPcT1lT3
 0000:00207BF4       TestReportMessage__13TTestReporterFPcT1
 0000:00207D14       TTestReporter::TestReadDataFile((char *,long,long *,char **))
 0000:00208068       Make__6TTrendSFl
 0000:002082C4       TTrend::ITrend((long))
 0000:00208318       AddToCluster__6TTrendFlT1
 0000:0020876C       Attach__6TTrendFlT1
 0000:002088BC       Merge__6TTrendFlP7ClusterT2
 0000:00208B28       TTrend::MergeCheck((long,Bias))
 0000:00208C7C       Make__10TTypeAssocSFv
 0000:00208E50       TTypeAssoc::Copy((void))
 0000:00208EA8       TTypeAssoc::AddAssoc((Assoc *))
 0000:00208F70       TTypeAssoc::MergeAssoc((TTypeAssoc *))
 0000:00208FFC       Make__9TTypeListSFv
 0000:00209278       TUnit::TUnit((void))
 0000:002092B4       Make__9TUnitListSFv
 0000:0020959C       AdjustForInk(TRect *)
 0000:002096E8       CountGesturePoints(TUnitPublic *)
 0000:002096F8       TUnitPublic::GestureAngle((void))
 0000:0020987C       New__13PInTranslatorSFPc
 0000:00209948       MakeWordList__11TUnitPublicFUcT1
 0000:00209DEC       PtInCPixelMap__FP8PixelMaplT2
 0000:0020A020       TUnitPublic::FindView((ulong))
 0000:0020A168       TUnitPublic::InputMask((void))
 0000:0020A2B0       TUnitPublic::EndTime((void))
 0000:0020A408       TUnitPublic::Invalidate((void))
 0000:0020A5B4       TUnit::GetAreas((void))
 0000:0020A730       TUnit::DumpName((TMsg *))
 0000:0020A8D0       TArray::~TArray((void))
 0000:0020A914       TUnit::MarkUnit((TUnitList *,ulong))
 0000:0020A99C       TUnit::GetBBox((FRect *))
 0000:0020A9C0       CountStrokes(TUnit *)
 0000:0020AAA0       MarkStrokes(TUnit *,char *,long)
 0000:0020ABDC       IUnit__5TUnitFP7TDomainUlT2P6TArray
 0000:0020ACC8       TArray::IDispose((void))
 0000:0020ADB4       TVRemoteIRTool::StartIRTransmit((void))
 0000:0020B15C       TVRemoteIRTool::TaskConstructor((void))
 0000:0020B1CC       nearbyint
 0000:0020B244       TVRemoteIRTool::TurnOnSerChip((void))
 0000:0020B3F4       TWordList::TWordList((void))
 0000:0020B59C       SwapSingleCharacterGuesses__9TWordListFlT1
 0000:0020B870       ClearTryString(void)
 0000:0020B894       AddTryString(ushort)
 0000:0020B944       InTryString(ushort)
 0000:0020B98C       IsSlash(ushort)
 0000:0020BB30       TWordList::Reorder((void))
 0000:0020BD18       TWordList::Word((long))
 0000:0020EAE4       CopyScan__FPPcT1Pl
 0000:0020EBA8       EncodeLine__FlPcN22
 0000:0020ECE8       TCardServer::InitializePCMCIABus((TCardSocket *))
 0000:0020EF7C       TBCPollTablet__FPlT1PUlPUc
 0000:0020F514       TabInitialize(Rect const &,TUPort *)
 0000:0020F69C       GetSampleRate(void)
 0000:0020F6E8       TVoyagerPlatform::StartKeyboardDriver((uchar))
 0000:0020F720       Rrecogarrowupoutside
 0000:0020F964       New__13TStoreMonitorSFPc
 0000:0021195C       TTaskSafeRingBuffer::CopyIn((uchar const *,long &))
 0000:00211A98       TTaskSafeRingBuffer::Reset((void))
 0000:00211B4C       TTaskSafeRingBuffer::GetSize(const(void))
 0000:00211B78       TTaskSafeRingBuffer::IsFull(const(void))
 0000:00211BD4       TTaskSafeRingBuffer::IsEmpty(const(void))
 0000:00211C70       TTaskSafeRingBuffer::FreeCount(const(void))
 0000:00211CC0       TTaskSafeRingBuffer::DataCount(const(void))
 0000:00211F90       TTaskSafeRingBuffer::Pause((ulong))
 0000:002120BC       TTaskSafeRingBuffer::Acquire((void))
 0000:0021214C       TTaskSafeRingBuffer::Release((void))
 0000:0021219C       TTaskSafeRingBuffer::Peek((void))
 0000:002121DC       TTaskSafeRingBuffer::Next((void))
 0000:00212248       TTaskSafeRingBuffer::Skip((void))
 0000:002122B0       TTaskSafeRingBuffer::Get((void))
 0000:00212438       Init__17TTaskSafeRingPipeFlUlT2Uc
 0000:002125C4       TDMAManager::PowerOnAssignment((ulong))
 0000:00212DA8       PrintError(char *)
 0000:00212FB0       HandleReplayUnit(TArray *)
 0000:002130EC       gArbiter
 0000:00213E1C       TXNewtContainer::AppendNewValue((ulong,long))
 0000:002152B0       TTextView::DerivedFrom(const(long))
 0000:00215344       FNumInkWordsInRange
 0000:0021564C       TTile::TTile((PixelMap *,RefVar const &))
 0000:0021589C       TTile::TileBuffer((uchar *))
 0000:00215A34       TTile::Untile((PixelMap *))
 0000:002166E4       FixedASin(long)
 0000:00216730       FixedACos(long)
 0000:002168A4       CircleDistance
 0000:00216A08       SleepTillTicks(ulong)
 0000:00216B08       TPackageManager::MainConstructor((void))
 0000:00216B58       InitPSSManager__FUlT1
 0000:00216BC8       AddPgP__FUlT1Uc
 0000:00216DF4       TTimerPort::Init((void))
 0000:00216E34       TimedReceive__10TTimerPortFPUlPvUlP10TUMsgTokenT1T3UcT7
 0000:00216F08       TTimerElement::Prime((ulong))
 0000:0021708C       TTimerQueue::Calibrate((void))
 0000:00217200       TTimerEngine::Queue((TSharedMemMsg *))
 0000:002172E4       TTimerEngine::Remove((TSharedMemMsg *))
 0000:00217370       TTimerEngine::Alarm((void))
 0000:0021745C       DeferredNotify(void)
 0000:002174C4       PrimRegisterDelayedFunction__FUlT1PvPFPv_v
 0000:00217564       PrimRemoveDelayedFunction(ulong)
 0000:002175D8       ClearAlarmAtomic(void)
 0000:00217634       TDMAManager::PowerOffAssignment((ulong))
 0000:002177D8       DoDeferrals
 0000:00217868       InitTranslators(void)
 0000:00217948       TUCTTable::Add((TTask *,ulong))
 0000:00217990       TUCTTable::Remove((ulong))
 0000:002179D4       TUCTTable::Remove((TTask *))
 0000:00217B70       IsPunctSymbol(ushort *,long)
 0000:00217C28       StripPunctSymbols(ushort *)
 0000:00217D98       gUnicodeLookupTable
 0000:00218320       TUnicodeDecompressor::ReadChunk((void *,long *,uchar *))
 0000:00218568       TUnicodeCompressor::WriteRun((void))
 0000:00218678       TUnicodeCompressor::WriteChunk((void *,long))
 0000:002187F4       TUnicodeCompressor::Flush((void))
 0000:002188F4       IsAlphabet(ushort)
 0000:00218974       IsHexDigit(ushort)
 0000:00218A14       IsWhiteSpace(ushort)
 0000:00218BF0       IsDelimiter(ushort)
 0000:00218C2C       IsFirstByteOf2Byte(uchar,long)
 0000:00218CC4       CompareStringNoCase__FPUsT1
 0000:00218D18       CompareTextNoCase(ushort *,long,long,long)
 0000:00218D60       ConvertTextCase(ushort *,long,signed char *)
 0000:00218ED0       UToLower(ushort)
 0000:00218F80       OldCompareText(ushort const *,long,long,long,uchar,long (*)(long,long,void *),void *)
 0000:002190F0       CompareUnicodeText(ushort const *,long,long,long,TSortingTable const *,uchar,long (*)(long,long,void *),void *)
 0000:00219354       CalcSecondOrderResult__FRC13TStringToSortT1
 0000:00219398       TStringToSort::TStringToSort((ushort const *,long,TSortingTable const *))
 0000:00219690       TStringToSort::SecondOrderProject(const(void))
 0000:00219AC8       TSortTables::Subscribe((long))
 0000:00219AEC       TSortTables::Unsubscribe((long))
 0000:00219B30       TSortTables::SetDefaultTableId((long))
 0000:00219BA8       FSetSortID__FRC6RefVarT1
 0000:00219E88       Init__17TUserAbortHandlerFUlT1
 0000:00219F0C       Init__8TUDomainFUlN21
 0000:00219F74       Remember__15TUDomainManagerFUlN21Uc
 0000:0021A000       RememberPhysMapRange__15TUDomainManagerFUlN31Uc
 0000:0021A068       RememberPhysMapRange__15TUDomainManagerSFUlN41Uc
 0000:0021A0F4       ForgetPhysMapRange__15TUDomainManagerFUlN21
 0000:0021A154       ForgetPhysMapRange__15TUDomainManagerSFUlN31
 0000:0021A1B0       RememberPhysMap__15TUDomainManagerFUlT1Uc
 0000:0021A220       RememberPhysMap__15TUDomainManagerSFUlN21Uc
 0000:0021A330       AlarmStatus__15TURealTimeAlarmSFUlPUcP5TTimePl
 0000:0021A3C4       Time__15TURealTimeAlarmSFv
 0000:0021A480       TUDomainManager::Get((ulong &,int))
 0000:0021A4D0       TUDomainManager::GetExternal((ulong &,int))
 0000:0021A538       Register__13TUPageManagerSFUl
 0000:0021A640       ReleasePageTable__15TUDomainManagerSFUl
 0000:0021A7B8       TSerTool::UnbindToSerChip((void))
 0000:0021A900       Remember__15TUDomainManagerSFUlN31Uc
 0000:0021A98C       TUDomain::SetFaultMonitor((ulong))
 0000:0021AA4C       UserInit(void)
 0000:0021AB5C       GetExternal__13TUPageManagerSFRUlUli
 0000:0021ABD8       LargeObjectIsReadOnly(ulong)
 0000:0021AC78       TUObject::DestroyObject((void))
 0000:0021AD74       TUPhys::ReadOnly((uchar &))
 0000:0021ADB8       TUPhys::Size((ulong &))
 0000:0021ADEC       TUPhys::Base((ulong &))
 0000:0021AE20       TUPhys::Align((ulong &))
 0000:0021AE54       TUPhys::Invalidate((void))
 0000:0021AE88       TUPhys::MakeInaccessible((void))
 0000:0021AEBC       TUPhys::MakeAccessible((void))
 0000:0021AEF0       ChangeVirtualMapping__6TUPhysFUlT115EPhysChangeType
 0000:0021AF58       CashMessageToken__10TUMsgTokenFPUlPvUlT3Uc
 0000:0021AFF4       GetResult__14TUAsyncMessageFPUlN31
 0000:0021B030       BlockTillDone__14TUAsyncMessageFPUlN31
 0000:0021B068       TUAsyncMessage::Abort((TUMsgToken *,ulong *))
 0000:0021B0A0       TDomain::~TDomain((void))
 0000:0021B138       SendGoo__6TUPortFUlT1PvN31UcT1P5TTime
 0000:0021B204       SendRPCGoo__6TUPortFUlT1PUlPvN31UcT4N21P5TTime
 0000:0021B2B4       Receive__6TUPortFPUlPvUlP10TUMsgTokenT1N23UcT8
 0000:0021B4D4       Receive__6TUPortFP14TUAsyncMessageUlT2Uc
 0000:0021B58C       TUPort::ResetMsgFilter((TUAsyncMessage *,ulong))
 0000:0021B608       TUMsgToken::ReplyRPC((void *,ulong,long))
 0000:0021B970       TULockingSemaphore::Acquire((SemFlags))
 0000:0021B9F4       TULockingSemaphore::Release((void))
 0000:0021BA40       StaticInit__15TURdWrSemaphoreSFv
 0000:0021BC58       StaticInit__18TULockingSemaphoreSFv
 0000:0021BD84       CopyToShared__11TUSharedMemFPvUlT2P10TUMsgToken
 0000:0021BDC8       CopyFromShared__11TUSharedMemFPUlPvUlT3P10TUMsgToken
 0000:0021C560       TUSoundChannel::Pause((SoundBlock *,long *))
 0000:0021C6E8       TUSoundChannel::Stop((SoundBlock *,long *))
 0000:0021CA78       TUSoundChannel::FreeNode((SoundNode *))
 0000:0021CDC8       ClassInfo__12TIrDAServiceSFv
 0000:0021CDD0       ClassInfo__14IRProbeServiceSFv
 0000:0021D094       SleepTill(TTime *)
 0000:0021D2E0       StartTask__11TUTaskWorldFUcT1UlN33
 0000:0021D328       TaskEntry__11TUTaskWorldFUlT1
 0000:0021D42C       __GetErrNo(void)
 0000:0021D48C       UnpackSmallRect(long)
 0000:0021D590       TUTask::Start((void))
 0000:0021D5CC       TUTask::Suspend((void))
 0000:0021D608       TUTask::GetRegister((ulong,ulong *))
 0000:0021D654       SetRegister__6TUTaskFUlT1
 0000:0021D698       TLicenseeVAddress::TLicenseeVAddress((ulong))
 0000:0021D7C8       TLicenseeVAddress::TLicenseeVAddress((TLicenseeVAddress const &))
 0000:0021D860       TLicenseeVAddress::__as((TUPhys const &))
 0000:0021D89C       TLicenseeVAddress::__as((TLicenseeVAddress const &))
 0000:0021DA60       TLicenseeVAddress::GetNextVirtualAddress((ulong))
 0000:0021DAC8       __ct__9TDynArrayFiT1
 0000:0021DB14       TRing::Pop((void))
 0000:0021DE04       Rand(long)
 0000:0021E5E0       xbitpack__FP13TCompressVarsUiT2
 0000:0021E8C0       V42CreateCompressVars(TCompressVars **)
 0000:0021F66C       TPageTracker::Take((void))
 0000:0021F6B8       ScanForREx(SGlobalsThatLiveAcrossReboot *,ulong)
 0000:0021F710       TExtPageTrackerMgr::DisposeTracker((ulong))
 0000:0021F790       TExtPageTrackerMgr::Put((TLittlePhys *))
 0000:0021F7E0       TExtPageTrackerMgr::Take((void))
 0000:0021FB84       TPageTracker::Put((TLittlePhys *))
 0000:0021FBBC       Init__15TExtPageTrackerSFPP15TExtPageTrackerUlN22
 0000:0021FD50       TStackManager::CopyPagesAfterStackCollided((TCopyPageAfterStackCollisionParams *))
 0000:0021FDC0       TExtPageTracker::Take((void))
 0000:0021FE1C       TExtPageTracker::RemoveReferences((ulong,uchar *))
 0000:0021FE84       TExtPageTracker::DoDeferral((void))
 0000:0021FEFC       MakeNewTracker__18TExtPageTrackerMgrFUlN21
 0000:0021FF30       TExtPageTrackerMgr::UnHookTracker((ulong))
 0000:00220034       GetCacheContext(RefVar const &)
 0000:0022049C       FBuildContext
 0000:002204D0       TPowerEventHandler::AEHandlerProc((TUMsgToken *,ulong *,TAEvent *))
 0000:002207B0       TView::AddView((RefVar const &))
 0000:00220888       TView::ClearFlags((ulong))
 0000:00220BEC       DoFindShape(RefVar const &,TPoint const &,RefVar &,TStyleSave *)
 0000:00220FA0       TView::SetFlags((ulong))
 0000:00221024       TView::ChildViewMoved((TView *,TPoint))
 0000:002211EC       TSerialDMAEngine::TSerialDMAEngine((void))
 0000:00221228       TBackwardViewListLoop::Next((void))
 0000:00221248       GetFirstNonFloater(TViewList *)
 0000:0022129C       GetLastClipper(TViewList *)
 0000:002212DC       TSerialChipVoyager::InitByOption((TOption *))
 0000:00221A30       TView::Dump((long))
 0000:00222B10       TView::DeleteHilited((RefVar const &))
 0000:00222B5C       Exists(TViewList *,RefVar const &)
 0000:00222BC0       TView::HandleHilite((TUnitPublic *,long,uchar))
 0000:00222D50       TView::GlobalHiliteBounds((TRect *))
 0000:00222F80       DrawScaledData__5TViewFRC5TRectT1P5TRect
 0000:00223004       Scale__5TViewFRC5TRectT1
 0000:00223118       DistanceFromLine__6TPointCFRC6TPointT1
 0000:002233C4       AlignPtToGrid(TPoint *,TPoint &)
 0000:0022341C       AlignRectToGrid(TRect *,TPoint &)
 0000:00223C50       TView::SoundEffect((RefVar const &))
 0000:00223C90       SyncScrollSoup__5TViewFRC6RefVarT1
 0000:002242C4       SyncScroll__5TViewFRC6RefVarN21
 0000:00224898       TView::RunCacheScript((long,RefVar const &,uchar,uchar *))
 0000:002249B0       RunScript__5TViewFRC6RefVarT1UcPUc
 0000:00224A68       TView::LocalOrigin(const(void))
 0000:00224AE0       DrawScaledData__14TParagraphViewFRC5TRectT1P5TRect
 0000:00224BD8       TParagraphView::SetBounds((TRect const &))
 0000:00226388       TView::ChildrenHeight((long *))
 0000:00226404       FSetCaretInfo
 0000:002265CC       TView::DerivedFrom(const(long))
 0000:00226980       TView::GetWindowView((void))
 0000:00226BB4       TView::AddChild((RefVar const &))
 0000:00226BE8       TView::Show((void))
 0000:00226CF4       TXView::Scrub((TUnitPublic *))
 0000:00227258       TView::Drag((TStrokePublic *,TRect const &))
 0000:00227868       TView::TransferCopyProtection((RefVar const &))
 0000:00227A2C       TView::FindID((long))
 0000:00227A7C       TView::DoMoveCommand((TPoint))
 0000:00227BA0       TView::ContentsOrigin((void))
 0000:00228504       TView::DrawChildren((TBaseRegion,TView *))
 0000:00228DC8       TView::Constructor((RefVar const &,TView *))
 0000:00229414       exRootException
 0000:0022967C       GetStrokeBundleFromCommand(RefVar const &)
 0000:0022B2E4       GetValue__5TViewFRC6RefVarT1
 0000:0022C468       VccIdleOff(ulong)
 0000:0022C8F8       VppOn(int,uchar)
 0000:0022CA08       ResetAccountTimeKernelGlue(void)
 0000:0022CEB8       Make__11TWRecDomainSFP11TController
 0000:0022CF8C       TWRecDomain::VerifyWordSymbols((ushort *))
 0000:0022D038       TWRecDomain::UnitInfoFreePtr((char *))
 0000:0022D0D4       TWRecDomain::UnitConfidence((TSIUnit *))
 0000:0022D180       TWRecDomain::Sleep((void))
 0000:0022D230       TWRecDomain::WakeUp((void))
 0000:0022D2FC       TWRecDomain::SignalMemoryError((void))
 0000:0022D498       TWRecDomain::IWRecDomain((TController *))
 0000:0022D5A8       TWRecognizer::NewClassification((TWRecUnit *))
 0000:0022D688       TWRecDomain::Dispose((void))
 0000:0022D7B0       TWRecDomain::Classify((TUnit *))
 0000:0022D8D8       TWRecDomain::Reclassify((TUnit *))
 0000:0022DAEC       DomainParameter__11TWRecDomainFUlN21
 0000:0022DC1C       TWRecDomain::ConfigureArea((RefVar const &,ulong))
 0000:0022DCD8       TWRecDomain::SetParameters((char **))
 0000:0022DD80       TRecUnit::IRecUnit((TDomain *,ulong,TArray *))
 0000:0022DE28       TRecUnit::IDispose((void))
 0000:00230FCC       ByteSwap__FPvlT2
 0000:002310F4       __ct__11TFlashRangeFP12TFlashDriverUlN2211eMemoryLaneRC21SFlashChipInformationR16TMemoryAllocator
 0000:00231198       TSharedWriteElement::StreamOut((ulong *,uchar *,ulong))
 0000:002316D0       MapPaths__FPP5pathsP4RectT2
 0000:002317A0       TFlashStore::SendAlertMgrWPBitch((int))
 0000:002320E8       Rdataname
 0000:00232808       Create__16TXIPPackageStoreFPUlP6TStoreP5CPipelUcPcPvT4P11TLOCallback
 0000:002329F8       CreateFromCompressed__16TXIPPackageStoreFPUlP6TStoreP5CPipelUcPcPvT4P11TLOCallback
 0000:00232A50       TXIPPackageStore::DeleteObject((TStore *,ulong))
 0000:00232BD4       Duplicate__16TXIPPackageStoreFPUlP6TStoreUlT2
 0000:00232D38       TXIPPackageStore::Backup((CPipe *,TStore *,ulong,uchar,TLOCallback *))
 0000:00233144       TXIPStorePackageWriter::WriteChunk((char *,long,uchar))
 0000:0023343C       TXIPStorePackageWriter::Flush((void))
 0000:00233688       InsertPages__19TROMDomainManager1KFP12PackageChunklT2
 0000:00233BA4       CalculateVirtualAddressForXIPPackage(ulong)
 0000:00233C54       TXIPPackageIterator::StoreXIP((TStore *,LargeObjectRoot *,TLOCallback *))
 0000:00234348       TROMDomainManager1K::XIPMapInPackageSection((ulong))
 0000:00234544       XIPObjectHasMoved(TStore *,ulong)
 0000:0023459C       XIPInvalidateStore(TStore *)
 0000:002345F8       CheckObjectAlignment__FP6TStoreUlN22
 0000:00234828       TROMDomainManager1K::XIPAddPackage((TStore *,ulong,ulong *))
 0000:00234B94       XIPChunkInObject__FPlP6TStoreUlT3
 0000:00234EF4       CXIPObjectPipe::Init((TStore *,ulong))
 0000:00235098       CXIPObjectPipe::Underflow((long,uchar &))
 0000:00235544       TXIPStoreCompander::DoTransactionAgainst((long,ulong))
 0000:00239080       TZIPInterface::FilterNonUserZone((TString32 *))
 0000:00239104       TZoneNameComparer::TestItem(const(void const *))
 0000:002392D0       TZIPInterface::GetRouterAddress((ulong,TAddress &))
 0000:0023937C       TZIPInterface::HaveZones((ulong))
 0000:002393D8       Compress__16TZippyCompressorFPUlPvUlT2T3
 0000:0023945C       TZippyCallbackCompressor::Delete((void))
 0000:00239490       TZippyCallbackCompressor::Init((void *))
 0000:00239530       TZippyCallbackCompressor::WriteChunk((void *,long))
 0000:00239608       TZippyCallbackCompressor::Flush((void))
 0000:0023967C       InitZippyCompression(void)
 0000:00239ABC       CompressChunk__16TZippyCompressorFPUlPvUlT2T3
 0000:00239F34       DecompressChunk__18TZippyDecompressorFPUlPvUlT2T3
 0000:0023A5E8       GetNextKernelVAddr(void)
 0000:0023BB94       InstallPatch(TReservedBlockAccessor *)
 0000:0023CBA8       MapInPatch(ulong)
 0000:0023D0C0       TOptionArray::InsertSubArrayAt((long,TOptionArray *))
 0000:0023D2A4       New__14POutTranslatorSFPc
 0000:0023ED7C       PMuxServiceStarter::SetMuxToolPort((ulong))
 0000:00242294       HandleInk(TEditView *,RefVar const &)
 0000:00259DF8       TUnit::~TUnit((void))
 0000:0025A4D8       TUnit::IDispose((void))
 0000:0025BE94       MakeCFunction(long (*)(RefVar const &,...),long,char *)
 0000:0025C0BC       cGetPackageBackupInfo__FUlPUsPUlT3PlP10SourceTypeT5N23
 0000:0025C3E4       TADSP::MatchConnection((ulong))
 0000:0025C57C       TADSP::OpenConnection((TPacketMessage *,ADSPHeader *,TADSPConnection **))
 0000:0025C76C       TADSP::ReadControl((TPacketMessage *,ADSPHeader *,TADSPConnection **))
 0000:0025C834       TADSP::TimerNotify((TAppleTalkMessage *))
 0000:0025CFC8       TADSP::NewConnection((ulong))
 0000:0025D130       TADSP::FindListener((uchar))
 0000:0025D1B8       TADSP::Match((ADSPHeader *,TAddress *,ADSPOpenConnInfo *,State **))
 0000:0025D444       TADSPSendBuffer::Putn((void const *,long *,int))
 0000:0025D4F4       TADSPSendBuffer::Getn((void *,long *,ulong *))
 0000:0025D6F8       TPSPrinter::SendRectangle((Rect *,Point))
 0000:0025D774       TADSPBuffer::CheckEOM((ulong,long *,int *,int))
 0000:0025D84C       TADSPBuffer::CountEOM((ulong,int *,int))
 0000:0025DA30       TADSPRecvBuffer::Putn((void const *,long,ulong,int))
 0000:0025E008       SlopeFromAngle(long)
 0000:0025E148       PtToAngle(Rect *,Point,long *)
 0000:0025E370       CallArc__FUcP4RectlT3
 0000:0025F004       AllocateCObjectBinary__FPvPFPv_vN22
 0000:0025F9BC       BBOptSrcCopy__FPUlT1lT3UlT5N53
 0000:0025FFD0       CallBits__FP8PixelMapP4RectT2lPP6Region
 0000:00260EB8       MSeekMask__FlT1PUlT1P8RgnStateN25
 0000:002671D4       InitFunctions(void)
 0000:002676EC       FSetPath
 0000:00267740       FRemoveSlot
 0000:00267814       FStrCompare
 0000:00267834       FNegate
 0000:00267954       FAbs
 0000:00267A54       FPrimClassOf
 0000:00267AC4       FIsBinary
 0000:00268028       FReal
 0000:00268134       FORD
 0000:002681B0       TRootView::RestoreBitsUnderCaret((void))
 0000:00268334       FCHR
 0000:00268400       PrintInstruction__FiPUcRC6RefVarN23
 0000:00268540       FAref
 0000:002686A8       FSetAref
 0000:00268968       FSetLength
 0000:002689A8       TTextView::RealDraw((TRect &))
 0000:00268EC0       TestUniStrings__21TGeneralizedTestFnVarFPlT1
 0000:00268FB8       StringerStringObject(RefVar const &,char *,long *,long *,long *)
 0000:00269180       FThrow
 0000:002692D4       DeleteCharArray(char *)
 0000:002694D8       gLex8symbolsPart1
 0000:00269884       TCardProcessor::MainConstructor((void))
 0000:0026A0C8       FIntern
 0000:0026A144       FSymbolName
 0000:0026A188       FPrint
 0000:0026A1E0       FWrite
 0000:0026A2A0       FNewWeakArray
 0000:0026A2F8       BreakLoop(void)
 0000:0026A334       REPBreakLoop(void)
 0000:0026A4B0       FExitBreakLoop
 0000:0026A4F8       exInterpreter
 0000:0026A548       FLoad
 0000:0026A5E4       FStats
 0000:0026A670       TCardProcessorEventHandler::Init((void))
 0000:0026AB10       AddInk(TView *,RefVar const &)
 0000:0026B398       Ffegetexcept
 0000:0026B408       Ffesetexcept
 0000:0026B698       InitLibrarian(void)
 0000:0026B720       FBitNot
 0000:0026B7B0       FRandom
 0000:0026BB78       FRethrow
 0000:0026BD64       FLessThan
 0000:0026BF54       FLessOrEqual
 0000:0026C140       FGreaterThan
 0000:0026C448       __vec_new__FPviT2T1
 0000:0026CDB8       TFlashStore::DoAbort((uchar))
 0000:0026E878       PCirrusSoundDriver::GetSoundHardwareInfo((TSoundDriverInfo *))
 0000:00271018       CheckReflow__21TXMultiFrameFormatterFlP19TXFormatReflowLinesUcT1PC12TXOffsetPair
 0000:00271400       IsInstance__FRC6RefVarT1
 0000:00271430       InitClasses(void)
 0000:0027145C       ResetParam(_CDC *)
 0000:002714C8       EncoderOpen(ushort,ulong,ulong,ulong,ulong)
 0000:00271678       EncoderClose(ulong,long *)
 0000:0027173C       GetInputTraceDefault(short,_POINT *,_CDC *)
 0000:00271970       TestStrokeSeg(_CDC *,ulong,ushort)
 0000:00271B8C       WriteLongStroke(_CDC *)
 0000:00271E54       AddPointToOdata(_CDC *,_POINT *)
 0000:00272088       EncoderRun(ulong)
 0000:0027225C       LockBook(char *,_BOOKENTRY *)
 0000:00272330       a_bin
 0000:002724A4       UnlockCodeBook(ushort)
 0000:00272588       TCompiler::TCompiler((TInputStream *,int))
 0000:00272900       TCompiler::Warning((char *))
 0000:00272A58       TCompiler::EmitVarGet((RefVar const &))
 0000:00272B38       TCompiler::EmitVarIncr((RefVar const &))
 0000:00272DB0       TCompiler::NewFunctionState((RefVar const &,TFunctionState *,int *))
 0000:00272FD8       TCompiler::IsConstantExpr((RefVar const &))
 0000:00273188       TLoopState::AddExit((long))
 0000:002731C0       TLoopState::PatchExits((long))
 0000:0027323C       TFunctionState::TFunctionState((TCompiler *,RefVar const &,TFunctionState *,int *))
 0000:0027355C       AllocatePT1(int,RefVar const &)
 0000:002737EC       TFunctionState::EmitPlaceholder((void))
 0000:00273998       TFunctionState::DeclarationsFinished((void))
 0000:002739E8       TFunctionState::ComputeInitialVarLocs((void))
 0000:00273B10       AllocatePT2__FiRC6RefVarT2
 0000:00273BB4       TFunctionState::ComputeArgFrame((void))
 0000:00274170       TFunctionState::IsLocalVariable((RefVar const &))
 0000:0027427C       TFunctionState::NoteVarReference((RefVar const &))
 0000:00274358       AddConstant__14TFunctionStateFRC6RefVarT1
 0000:00274428       TFunctionState::IsLocalConstant((RefVar const &))
 0000:00274458       AllocatePT3__FiRC6RefVarN22
 0000:00274530       TFunctionState::MakeCodeBlock((void))
 0000:00274998       TFunctionState::BeginLoop((void))
 0000:002749E4       TFunctionState::AddLoopExit((void))
 0000:00274B48       ParseFile(char *)
 0000:00274F54       PrintInstructions(RefVar const &)
 0000:002750A0       Disassemble(RefVar const &)
 0000:00275324       TInterpreter::TaciturnPrintObject((RefVar const &,long))
 0000:002755E0       Rkoserroralerttextbounds
 0000:002757B4       AllocatePT5__FiRC6RefVarN42
 0000:00275A9C       TCompiler::WalkForClosures((RefVar const &))
 0000:00275B90       TCompiler::Compile((void))
 0000:00275E94       Ruerasepersistentstatusemptybuttonstr
 0000:00275E98       TKybdExtension::GetFeatures((void))
 0000:00275EA4       WalkAssignment__9TCompilerFRC6RefVarT1Uc
 0000:00276408       TCompiler::WalkForStringer((RefVar const &))
 0000:00276524       TCompiler::WalkForCode((RefVar const &,uchar))
 0000:0027B644       ConvertData(void **,uint *,ushort)
 0000:0027B818       ConverterRun(_CDC *,_DCC *)
 0000:0027B8B8       ProcessLongStrokeNear(_CDC *,_DCC *)
 0000:0027B95C       ProcessShortStrokeNear(_CDC *,_DCC *)
 0000:0027B9EC       ProcessNewStroke(_CDC *,_DCC *,short *)
 0000:0027BA4C       SetAlarmAtomic(TTime &)
 0000:002807B8       TCursor::Invalidate((void))
 0000:00280820       TCollectCursor::Invalidate((void))
 0000:0028086C       TCollectCursor::GCUpdate((void))
 0000:00280890       FindString(ushort *,long,long)
 0000:002808F8       FindWord(ushort *,long,long,uchar)
 0000:002809B4       EachSoupCursorDo(RefVar const &,long,long,long)
 0000:00280B18       EachSoupCursorDo(RefVar const &,long)
 0000:00280B74       EachSoupCursorDo(RefVar const &,long,long)
 0000:00281578       TCursor::KeyBoundsValidTest((SKey const &,uchar))
 0000:00281628       WordsValidTestTextProc(ushort *,long,void *)
 0000:0028198C       ValidTest__7TCursorFRC4SKeyUlUcPUcT4
 0000:00281C6C       CursorStopFn__FP4SKeyT1Pv
 0000:002820EC       CountEntriesStopFn__FP4SKeyT1Pv
 0000:00282150       TCursor::CountEntries((void))
 0000:00282278       TCursor::RebuildInfo((uchar,long))
 0000:0028292C       TCursor::GotoEntry((RefVar const &))
 0000:00282BF8       TCursor::IsParked((void))
 0000:00282CA0       EntryReadded__7TCursorFRC6RefVarT1
 0000:00283030       TWRecognizer::EndInkStrokeGroup((TStrokeUnit **))
 0000:00283060       gWRecTaskDefaultHeap
 0000:00283064       TCursor::GCMark((void))
 0000:00283144       TCursor::GCUpdate((void))
 0000:0028378C       TSoupIndex::DeleteDupData((DupNodeHeader *,void *))
 0000:002837BC       CursorResetToEnd
 0000:002837F0       CursorCountEntries
 0000:00283814       CursorWhichEnd
 0000:0028385C       PtrToPtr(char *)
 0000:002839A8       TCursor::Init((RefVar const &,TCursor const *))
 0000:00283B80       TagsBits::ValidTest(const(TagsBits const &,long))
 0000:00283F3C       EncodeQueryTags__FRC6RefVarT1
 0000:002840AC       TagsValidTest(TSoupIndex &,RefVar const &,ulong)
 0000:002842B4       CollectStopFn__FP4SKeyT1Pv
 0000:002843CC       TFaxToolInterface::~TFaxToolInterface((void))
 0000:002845EC       TCollectCursor::Move((long))
 0000:00284800       TCollectCursor::GotoEntry((RefVar const &))
 0000:00284A24       EntrySoupChanged__14TCollectCursorFRC6RefVarT1
 0000:00284B00       ScaleCurve__FP5curvelT2
 0000:00284DC4       DrawCurve(curve *,long,PixelMap **)
 0000:00284EEC       StdCurve
 0000:00285494       TNSDebugAPI::Locals((long))
 0000:00285CC8       TNSDebugAPI::StackStart((long))
 0000:00285D2C       TNSDebugAPI::NumTemps((long))
 0000:00285D98       TempValue__11TNSDebugAPIFlT1
 0000:00285E44       SetTempValue__11TNSDebugAPIFlT1RC6RefVar
 0000:00285EF8       TXLine::RunCharToPixel((ushort const *,TXLineRunInfo const *,long))
 0000:0028604C       NTKStackFrameInfo(TNSDebugAPI &,long)
 0000:002863D4       NTKStackTrace(void *)
 0000:00286480       REPStackTrace(void *)
 0000:00286CF8       PrintWellKnownObject(RefVar const &,long)
 0000:00286DA8       TInterpreter::GetSelfFromStack((RefVar const &))
 0000:0028707C       TInterpreter::EnableBreakPoints((uchar))
 0000:00287134       Rcodeblockprototype
 0000:00287138       FunctionDebugName(RefVar const &)
 0000:00287304       DESDecode
 0000:00287424       DcdrSelectCodeBook(_DCC *)
 0000:00287550       ReadNewStroke(_DCC *,short *)
 0000:00287874       ReadSegmentNear(_DCC *,short *)
 0000:00287A58       ReadShortStroke(_DCC *)
 0000:00287B70       GetSkipPoint__FP7tag_SKPsT2
 0000:0028827C       DecodeWord_OLD(_DCC *,_CODETABLE *,short *)
 0000:00288404       DecodeLongStroke(_DCC *)
 0000:002886FC       DecodeShortStroke(_DCC *)
 0000:00288784       StorePointProcDefault(short,_POINT *,_DCC *)
 0000:00288A40       DecoderOpen(ushort,ulong,ulong,ulong,ulong)
 0000:00288B4C       DecoderRun(ulong)
 0000:00288CD4       DecoderClose(ulong,long *)
 0000:00288D8C       DESCharToKey
 0000:0028903C       DESEncodeNonce
 0000:00289070       DESDecodeNonce
 0000:002896F4       TEWorldClient::DispatchPacket((uchar *,ulong))
 0000:0028A4CC       AddLargeAtom__13TEWorldClientFUlsPUcT1
 0000:0028A6A4       DoOutput__13TEWorldClientFRC6RefVarT1
 0000:0028A960       DoOutputAtom__13TEWorldClientFRC6RefVarN31
 0000:0028ACF8       InitEWorldClient__13TEWorldClientFRC6RefVarT1
 0000:0028AF04       TEWorldClient::ClearAtomizer((void))
 0000:0028AF74       ProcessAtomStream__13TEWorldClientFUlPUcT1
 0000:0028B4AC       AddToStreamBuffer__13TEWorldClientFUlN31PUc
 0000:0028B6A4       EWInstantiate
 0000:0028B6F0       EWSend
 0000:0028B770       EWOutput
 0000:0028B7F0       EWOutputAtom
 0000:0028BB9C       EWUniAtomHandler
 0000:0028C0AC       EWAllocateFile
 0000:0028C380       TEWorldClient::ConnectToHost((RefVar const &))
 0000:0028C5D4       RegisterDomainId__13MemObjManagerSFUlT1
 0000:0028CAE0       EWUploadFile
 0000:0028CB6C       EWConnectToHost
 0000:0028CBAC       EWBufferStart
 0000:0028CBEC       EWSetError
 0000:0028CE04       TEWorldClient::SendP3Buffer((ulong))
 0000:0028CF74       QvantUN__FlT1
 0000:0028CFB8       SegVectQuant(_CDC *,short *,uint)
 0000:0028D168       EcdrSelectCodeBook(_CDC *)
 0000:0028D420       EncodeWord_OLD(_CDC *,short,_CODETABLE *)
 0000:0028D5A0       WriteNewStroke(_CDC *,short)
 0000:0028D858       WriteSegment(_CDC *,short)
 0000:0028DA5C       WriteShortStroke(_CDC *)
 0000:0028EB74       DESEncode
 0000:0028EC24       DESip__FUlT1PUl
 0000:0028ECBC       DESfrk__FUlN21
 0000:0028ED30       DESSBoxes
 0000:0028ED34       DESPTbl
 0000:0028ED8C       EntrySoup(RefVar const &)
 0000:0028EE04       EntryStore(RefVar const &)
 0000:0028F4BC       EntryRemoveFromSoup(RefVar const &)
 0000:0028F89C       EntryReplaceCommon__FRC6RefVarT1i
 0000:0028FAAC       EntryUndoChanges(RefVar const &)
 0000:0028FDD0       EntryDirty1(Object *,EntryDirtyLink *)
 0000:002901BC       IsProxyEntry(RefVar const &)
 0000:002907C4       TEphemeralTracker::DeleteEphemeral1((ulong))
 0000:002908A4       TEphemeralTracker::DeleteAllEphemerals((void))
 0000:002908FC       TEphemeralTracker::DeletePendingEphemerals((void))
 0000:00290A24       FindAndRemove__17TEphemeralTrackerSFUlP13CDynamicArray
 0000:00290A68       EnsureStoreHasEphemeralTracker(RefVar const &,ulong)
 0000:00290CF4       StoreWritable(TStore *)
 0000:00290D90       TEphemeralTracker::Init((TStoreWrapper *,ulong))
 0000:00290F88       TEphemeralTracker::IsEphemeral((ulong))
 0000:00290FE4       TFlash::SuspendService((void))
 0000:002911B8       New__12PFrameSourceSFPc
 0000:002911E4       TEventCollector::Deregister((void))
 0000:00291254       THistoryCollector::Delete((void))
 0000:00291500       THistoryCollector::AddReset((uchar))
 0000:00291558       TStoreWritePipe::CompCallback((void *,long,uchar))
 0000:002916E4       TStoreWritePipe::Init((TStoreWrapper *,ulong,long,CompressionType))
 0000:0029187C       TStoreWritePipe::~TStoreWritePipe((void))
 0000:002918F4       TStoreWritePipe::BufferToObject((char *,long))
 0000:00291954       TStoreWritePipe::WriteToStore((char *,long))
 0000:00291BE4       NewDecompressor(CompressionType,long (*)(ulong,void *,long *,uchar *),ulong)
 0000:00291DAC       TStoreReadPipe::TStoreReadPipe((char *,long))
 0000:00291E04       TStoreReadPipe::~TStoreReadPipe((void))
 0000:00291EAC       TStoreReadPipe::ReadFromStore((char *,long))
 0000:00292020       TStoreReadPipe::Skip((long))
 0000:002920E0       TStoreReadPipe::__rs((long &))
 0000:002921AC       ReadReference(TStoreReadPipe &)
 0000:00292D50       CanonicalCharacter(ushort)
 0000:00293620       TStoreObjectReader::Scan1((void))
 0000:00293E40       LoadPermObject(TStoreWrapper *,ulong,CDynamicArray **)
 0000:00294178       CopyPermObject__FUlP13TStoreWrapperT2
 0000:00294398       TWordHintsHandler::SetHints((long *,ushort *,long))
 0000:002944BC       StorePermObject(RefVar const &,TStoreWrapper *,ulong &,CDynamicArray *,uchar *)
 0000:002945D8       ZapLargeObject(TStoreWrapper *,ulong,long,void *)
 0000:002945F0       ZapLargeBinaries(TStoreWrapper *,ulong)
 0000:0029467C       DeletePermObject(TStoreWrapper *,ulong)
 0000:00294708       TObjTextDecompressor::TObjTextDecompressor((void))
 0000:00294754       TextDecompCallback(ulong,void *,long *,uchar *)
 0000:00294758       TObjTextDecompressor::~TObjTextDecompressor((void))
 0000:00294800       TObjTextDecompressor::SlowDecompress((TStoreWrapper *,ulong,long *))
 0000:00294884       TObjTextDecompressor::Decompress((TStoreWrapper *,ulong,long *))
 0000:00294944       FindHintWord__17TWordHintsHandlerFRPUsRlT2
 0000:00294AE8       WithPermObjectTextDo(TStoreWrapper *,ulong,uchar (*)(ushort *,long,void *),void *,void **)
 0000:00294CAC       FollowFaultBlock(RefVar const &)
 0000:00294D50       WriteFaultBlock(RefVar const &)
 0000:00294E7C       InvalFaultBlock(RefVar const &)
 0000:00294EDC       UncacheIfFaultBlock(RefVar const &)
 0000:002950BC       GetLargeObjectSize(TStoreWrapper *,ulong,long,void *)
 0000:00295258       EntrySize(ulong,TStoreWrapper *,uchar)
 0000:00296B70       SearchFont(long,ushort *)
 0000:00297BC4       CommitObjects(TStore *)
 0000:00297C1C       FulfillPendingImports(MPExportItem *,long)
 0000:00297D68       FreeExportTable(MPExportItem *)
 0000:00297DA0       InstallExportTables(RefVar const &,void *)
 0000:002983A4       InstallImportTable(ulong,RefVar const &,void *,long)
 0000:00298CE8       FFlushImports
 0000:00298FE0       FFulfillImportTable
 0000:002992BC       TFramePartHandler::Install((PartId const &,SourceType,PartInfo *))
 0000:00299768       TFramePartHandler::Expand((void *,CPipe *,PartInfo *))
 0000:00299978       IsInRDMSpace(ulong)
 0000:00299A04       TFrameRelocationGenerator::TFrameRelocationGenerator((void))
 0000:0029A2D0       UnRegisterName__12TUNameServerFPcT1
 0000:0029A2F8       WaitForUnregister__12TUNameServerFPcT1
 0000:0029A394       TObjectHeap::Mark((long))
 0000:0029AB74       TObjectHeap::GC((void))
 0000:0029B134       DIYGCRegister__FPvPFPv_vT2
 0000:0029B234       QDStartDrawing(PixelMap *,Rect *)
 0000:0029B27C       QDStopDrawing(PixelMap *,Rect *)
 0000:0029B430       LCDPowerOn(uchar)
 0000:0029B464       LCDPowerOff(uchar)
 0000:0029BB98       StartDrawing(PixelMap *,Rect *)
 0000:0029BBE4       StopDrawing(PixelMap *,Rect *)
 0000:0029BD58       ClosePort(GrafPort *)
 0000:0029BF58       GetCurrentPort(void)
 0000:0029BF7C       InitForkGlobalsForQD(NewtGlobals *)
 0000:0029BFF0       OpenPort(GrafPort *)
 0000:0029C0C8       InitPortRgns(GrafPort *)
 0000:0029C0FC       wideHandle
 0000:0029C19C       SetPort(GrafPort *)
 0000:0029C38C       TSoupIndex::DeleteKey((KeyField *,NodeHeader *,uchar *))
 0000:0029C670       TSoupIndex::FreeDupNodes((KeyField *))
 0000:0029C800       TSoupIndex::BTGetPriorKey((KeyField *))
 0000:0029C9D0       SKey::SetMissingKey((int))
 0000:0029CB00       LongKeyCompare__10TSoupIndexFRC4SKeyT1
 0000:0029CB2C       CharacterKeyCompare__10TSoupIndexFRC4SKeyT1
 0000:0029CB68       DoubleKeyCompare__10TSoupIndexFRC4SKeyT1
 0000:0029CCAC       MultiKeyCompare__10TSoupIndexFRC4SKeyT1
 0000:0029CE8C       Create__10TSoupIndexSFP13TStoreWrapperP9IndexInfo
 0000:0029D050       Add__10TSoupIndexFP4SKeyT1
 0000:0029D0E0       AddInTransaction__10TSoupIndexFP4SKeyT1
 0000:0029D134       Find__10TSoupIndexFP4SKeyN21Uc
 0000:0029D31C       TSoupIndex::FindAndGetState((KeyField *,IndexState *))
 0000:0029D4A4       TSoupIndex::FindPriorAndGetState((KeyField *,uchar,IndexState *))
 0000:0029D58C       TNodeCache::TNodeCache((void))
 0000:0029DA20       Search__10TSoupIndexFiP4SKeyT2PFP4SKeyT1Pv_iPvN22
 0000:0029DBFC       Delete__10TSoupIndexFP4SKeyT1
 0000:0029DCA8       First__10TSoupIndexFP4SKeyT1
 0000:0029DD74       Last__10TSoupIndexFP4SKeyT1
 0000:0029DE40       Next__10TSoupIndexFP4SKeyT1iN21
 0000:0029DF28       Prior__10TSoupIndexFP4SKeyT1UcN21
 0000:0029E008       TSoupIndex::Destroy((void))
 0000:0029E0A0       TSoupIndex::NodeSize((NodeHeader *,long &))
 0000:0029E208       TSoupIndex::DupNodeSize((KeyField *,long &))
 0000:0029E288       TSoupIndex::TotalSize((void))
 0000:0029E338       UnionIndexData::UnionIndexData((void))
 0000:0029E388       TAbstractSoupIndex::TAbstractSoupIndex((void))
 0000:0029E3C0       TUnionSoupIndex::TUnionSoupIndex((long,UnionIndexData *))
 0000:0029E474       Find__15TUnionSoupIndexFP4SKeyN21Uc
 0000:0029E8D0       Next__15TUnionSoupIndexFP4SKeyT1iN21
 0000:0029EB90       IsValidState__15TUnionSoupIndexFP4SKeyT1
 0000:0029ECA8       Search__15TUnionSoupIndexFUcP4SKeyT2PFP4SKeyT1Pv_iPvN22i
 0000:0029EFE8       RememberNode__10TNodeCacheFP10TSoupIndexUlliT4
 0000:0029F108       exOutOfMemory
 0000:0029F1C8       TNodeCache::DeleteNode((ulong))
 0000:0029F2F8       SKey::__as((SKey const &))
 0000:0029F318       TNodeCache::Commit((TSoupIndex *))
 0000:0029F510       FindPrior__18TAbstractSoupIndexFP4SKeyN21UcT4
 0000:0029F670       ReadANode__10TSoupIndexFUlT1
 0000:0029F768       TSoupIndex::ReadADupNode((ulong))
 0000:0029F818       TSoupIndex::UpdateNode((NodeHeader *))
 0000:0029F894       TSoupIndex::UpdateDupNode((NodeHeader *))
 0000:0029F8D0       SKey::__as((long))
 0000:0029F908       TSoupIndex::NewNode((void))
 0000:0029FB18       TSoupIndex::kfLastDataAdr((KeyField *))
 0000:0029FC18       SKey::operator long(const(void))
 0000:002A0264       SKey::__as((ushort))
 0000:002A0318       TSoupIndex::LastDupDataAdr((KeyField *,DupNodeHeader **))
 0000:002A0618       TSoupIndex::LeftNodeNo((NodeHeader *,long))
 0000:002A066C       TSoupIndex::RightNodeNo((NodeHeader *,long))
 0000:002A06D8       SKey::operator ushort(const(void))
 0000:002A0804       TSoupIndex::CopyKeyFmNode((KeyField *,ulong *,NodeHeader *,long))
 0000:002A0860       TSoupIndex::KeyAfterNodeNo((NodeHeader *,ulong,long *))
 0000:002A0938       TSoupIndex::KeyInNode((KeyField *,NodeHeader *,ulong *,long *))
 0000:002A0A18       SKey::__as((double const))
 0000:002A0BD0       TSoupIndex::DeleteKeyFromNode((NodeHeader *,long))
 0000:002A0DB8       TSoupIndex::CreateNewRoot((KeyField *,ulong))
 0000:002A0FA0       TSoupIndex::FindPriorKey((KeyField *,NodeHeader **,long *))
 0000:002A1110       SKey::operator double(const(void))
 0000:002A1144       TSoupIndex::FindFirstKey((NodeHeader *,KeyField *))
 0000:002A11B0       TSoupIndex::FindLastKey((NodeHeader *,KeyField *))
 0000:002A1254       TSoupIndex::Search((KeyField *,NodeHeader **,long *))
 0000:002A13E4       TSoupIndex::FindNextDupDataAdr((DupNodeHeader **,void *,uchar *))
 0000:002A14C8       TSoupIndex::FindPriorDupDataAdr((DupNodeHeader **,void *,uchar *))
 0000:002A1798       TSoupIndex::SearchNext((KeyField *,NodeHeader **,long *))
 0000:002A1894       TSoupIndex::SearchPrior((KeyField *,NodeHeader **,long *))
 0000:002A1B4C       SKey::Equals(const(SKey const &))
 0000:002A1BB4       TSoupIndex::SplitANode((KeyField *,ulong *,NodeHeader *,long))
 0000:002A1D70       TSoupIndex::CheckForDupData((KeyField *,void *))
 0000:002A2148       TSoupIndex::InsertKey((KeyField *,NodeHeader *,ulong *,uchar *))
 0000:002A22C0       TSoupIndex::InsertAfterDelete((KeyField *,ulong,NodeHeader *))
 0000:002A23E8       MergeTwoNodes__10TSoupIndexFP8KeyFieldP10NodeHeaderN22
 0000:002A2758       BalanceTwoNodes__10TSoupIndexFP10NodeHeaderT1l
 0000:002A2894       TSoupIndex::GetLeafKey((KeyField *,NodeHeader *))
 0000:002A3600       FastCall(FastRunState *,long)
 0000:002A3690       FastSend(FastRunState *,long)
 0000:002A373C       FastSendIfDefined(FastRunState *,long)
 0000:002A37EC       FastResend(FastRunState *,long)
 0000:002A3890       FastResendIfDefined(FastRunState *,long)
 0000:002A3B8C       FastFindVar(FastRunState *,long)
 0000:002A3C8C       FastFindAndSetVar(FastRunState *,long)
 0000:002A3DE4       FastMakeArray(FastRunState *,long)
 0000:002A4124       TInterpreter::FastRun((long))
 0000:002A5160       FastBranchIfLoopNotDone(FastRunState *,long)
 0000:002A52E0       FastComplicatedAref__FP12FastRunStatelT2i
 0000:002A5410       FastComplicatedSetAref__FP12FastRunStatelT2i
 0000:002A5A18       NSCall(RefVar const &)
 0000:002A5A50       NSCall__FRC6RefVarT1
 0000:002A5AA0       NSCall__FRC6RefVarN21
 0000:002A5B00       NSCall__FRC6RefVarN31
 0000:002A5B70       NSCall__FRC6RefVarN41
 0000:002A5BF0       NSCall__FRC6RefVarN51
 0000:002A5C80       NSCall__FRC6RefVarN61
 0000:002A5DD8       PushArgArray(RefVar const &)
 0000:002A75E8       NSGetGlobalFn(RefVar const &)
 0000:002A7740       NSCallGlobalFn__FRC6RefVarN41
 0000:002A7C50       TInterpreter::AlternatingLoops((long))
 0000:002A7D9C       TInterpreter::SlowRun((long))
 0000:002AA0B4       ResetStack(StackState const &)
 0000:002AA12C       TopLevelCall__12TInterpreterFRC6RefVarT1
 0000:002AA86C       CallCodeBlock__12TInterpreterFRC6RefVarlT2
 0000:002AAA1C       CallPlainCodeBlock__12TInterpreterFRC6RefVarlT2
 0000:002AAF90       TInterpreter::CallCFuncPtr((long (*)(RefVar const &,...),long))
 0000:002AB384       RememberDeveloperNotified(Exception *)
 0000:002AB3F0       ForgetDeveloperNotified(char *)
 0000:002AB454       TInterpreter::PopHandlers((void))
 0000:002AB914       REPExceptionNotify(Exception *)
 0000:002ABAAC       exMsgException
 0000:002ABCC0       TInterpreter::HandleException((Exception *,long,StackState &))
 0000:002AC300       SetupSend__FRC6RefVarT1lR6RefVar
 0000:002AC360       SetupResend(RefVar const &,long,RefVar &)
 0000:002AC414       NativeEntry(RefVar const &,long,RefHandle **)
 0000:002AC74C       InitInterpreter(void)
 0000:002ACAD4       InitForkGlobalsForFrames(NewtGlobals *)
 0000:002AD1BC       DESKeySched
 0000:002AD218       DESPC2Tbl
 0000:002AD26C       LineTo__FlT1
 0000:002AD2C8       Line__FlT1
 0000:002AD2F8       StdLine
 0000:002AD7C4       InkerLine__FC5PointT1P4RectT1PC8PixelMap
 0000:002B34CC       CloneFrameSlot__7TCursorCFRC6RefVarT1
 0000:002B39D0       Init__7TCursorFRC6RefVarN21
 0000:002B3D68       PlainSoupSetName
 0000:002B471C       ICacheClear(void)
 0000:002B47D0       ICacheClearSymbol__FlT1
 0000:002B48D8       InitICache(void)
 0000:002B5530       XFindProtoImplementor__FRC6RefVarT1P6RefVarT3
 0000:002B5A38       FindImplementor__FRC6RefVarT1
 0000:002B65D4       Lookup__7TICacheFlT1PlN33
 0000:002B66B4       LookupValue__7TICacheFlT1PlT3
 0000:002B9310       CountTStrokes(TStroke **)
 0000:002BC6A8       TMonthView::DateRect((TRect &,long))
 0000:002BDF8C       PMuxServiceStarter::Delete((void))
 0000:002BE3BC       FourCharToSymbol(ulong)
 0000:002BE3E0       PSerialChipRegistry::UnRegister((TSerialChip *))
 0000:002BE600       TNewtCardEventHandler::ReadyToAcceptCardEvents((void))
 0000:002BE654       TNewtCardEventHandler::AEHandlerProc((TUMsgToken *,ulong *,TAEvent *))
 0000:002BE688       TNewtCardEventHandler::SendAyncServer((TCardAsyncMsg *,ulong))
 0000:002BE79C       TNewtCardEventHandler::HandleCardEvent((TCardMessage *))
 0000:002BE9D0       FUnmountCard
 0000:002BEB10       HandleNewCard(TNewCardEvent *)
 0000:002BEBA8       CardEventPrompt(RefVar const &,ulong)
 0000:002BEC3C       FGetCardTypes
 0000:002BED74       gNumberOfHWSockets
 0000:002BEE70       TNewtWorld::ForkInit((TForkWorld *))
 0000:002BEEAC       GetNewtGlobals(void)
 0000:002BEEF0       TNewtWorld::ForkConstructor((TForkWorld *))
 0000:002BEF38       TNewtWorld::ForkDestructor((void))
 0000:002BEF74       CardEventPrompt(RefVar const &,ulong,long)
 0000:002BEFF8       TNewtWorld::PreMain((void))
 0000:002BF340       FBootSucceeded
 0000:002BF424       TSerialChip16450::Delete((void))
 0000:002BF694       TNewtWorld::AEDispatch((ulong,TUMsgToken *,ulong *,TAEvent *))
 0000:002BFBA8       TXRulerIconsBar::DoLineSpaceClick((int,TXAttrValues *,long *))
 0000:002BFED8       HandleWeirdCardEvent(RefVar const &,ulong,ulong)
 0000:002BFFA8       FModalDialog
 0000:002C0364       FForkScript
 0000:002C04A0       PSoundDriver::InputIntHandlerDispatcher((void))
 0000:002C05CC       StorageCardInserted(TNewStoreEvent *)
 0000:002C0764       MountStore(TStore *,SPSSStoreInfo *)
 0000:002C0C64       CheckCardActiveProtocols(TNewStoreEvent *)
 0000:002C0D7C       StorageCardRemoved(TNewStoreEvent *)
 0000:002C0EA8       UnmountStore(TStore *)
 0000:002C1540       HandleRunScriptEvent(TRunScriptEvent *)
 0000:002C1740       SendRunScriptEvent__FPcN21lPl
 0000:002C1CE4       SBankInfo::NormalRAMSize((void))
 0000:002C1DF8       ConvertUnicodeCharacters__FPUsPclT3
 0000:002C1E20       GetUnsuccessfulBootCount
 0000:002C1E74       FPE_InstallNJT
 0000:002C1F30       GetRebootReason
 0000:002C2580       ArrayRemoveCount__FRC6RefVarlT2
 0000:002C2AFC       QSort(RefVar const &,TGeneralizedTestFnVar *)
 0000:002C2BB4       SortArray__FRC6RefVarN21
 0000:002C2CB0       StrMunger__FRC6RefVarlT2T1N22
 0000:002C309C       FArrayPos
 0000:002C30FC       FGreaterOrEqual
 0000:002C3224       StringsSame__FRC6RefVarT1
 0000:002C32E4       ArrayRemove__FRC6RefVarT1
 0000:002C3388       Substring__FRC6RefVarlT2
 0000:002C3648       StrBeginsWith__FRC6RefVarT1
 0000:002C36EC       StrCapitalizeWords(RefVar const &)
 0000:002C380C       TrimString(RefVar const &)
 0000:002C38DC       CharacterPosition(RefVar const &,ushort,long)
 0000:002C3950       FCharPos
 0000:002C39D8       StrEndsWith__FRC6RefVarT1
 0000:002C3AA0       FStrPos
 0000:002C3C44       FStrReplace
 0000:002C3FAC       FSetContains
 0000:002C40DC       BoundsCheck(RefVar const &,long,uint)
 0000:002C4150       BoundsWriteCheck(RefVar const &,long,uint)
 0000:002C41E0       FExtractChar
 0000:002C4340       FExtractUniChar
 0000:002C4474       FExtractByte
 0000:002C44C8       FStuffByte
 0000:002C455C       FExtractWord
 0000:002C45D4       FSetAdd
 0000:002C46EC       FExtractLong
 0000:002C4840       FExtractXLong
 0000:002C49B8       FStuffCString
 0000:002C4FA8       FSetRemove
 0000:002C515C       FArrayInsert
 0000:002C5788       StrCapitalize(RefVar const &)
 0000:002C5CCC       FLSearch
 0000:002C5E88       ToObject(TDate const &)
 0000:002C6024       TXLineSpacingCluster::DrawLineSpacingString((TXRuler const *))
 0000:002C6374       FBInsertRight
 0000:002C6558       FBInsert
 0000:002C6754       FBDelete
 0000:002C6CB0       GenOrderedSetOp__FRC6RefVarN31lPFlT1_iN35
 0000:002C73C8       FBDifference
 0000:002C7424       ShellSortUtil(RefVar const &,TGeneralizedTestFnVar *,long)
 0000:002C75F0       FShellSort
 0000:002C7698       FInsertionSort
 0000:002C7710       MergeUtil(long *,long,long,long,long,TGeneralizedTestFnVar *)
 0000:002C7814       MergeSortUtil__FPlT1lT3P21TGeneralizedTestFnVar
 0000:002C79CC       MergeSort(RefVar const &,TGeneralizedTestFnVar *)
 0000:002C7C30       StdioOn(void)
 0000:002C7C48       StdioOff(void)
 0000:002C7CB8       set_input_notify
 0000:002C7D18       _sys_open
 0000:002C7D60       _sys_close
 0000:002C7D88       _sys_istty
 0000:002C7DC8       _sys_read
 0000:002C7E28       _sys_write
 0000:002C7EBC       _sys_seek
 0000:002C7F08       _sys_flen
 0000:002C7F5C       AllocateStdioMutex
 0000:002C8068       IsNumber(long)
 0000:002C82F0       SetupListEQ(long)
 0000:002C835C       RCHAR(long)
 0000:002C83A8       IsString(RefVar const &)
 0000:002C84BC       IsFrame(RefVar const &)
 0000:002C8518       Rdsplacehints
 0000:002C851C       TObjectTable::Remove((ulong))
 0000:002C85D8       TObjectTable::Scavenge((void))
 0000:002C86CC       TObjectTable::ScavengeAll((void))
 0000:002C86F8       ReassignOwnership__12TObjectTableFUlT1
 0000:002C875C       TObjectTableIterator::TObjectTableIterator((TObjectTable *,ulong))
 0000:002C88A8       TObjectTableIterator::GetNextTableId((void))
 0000:002C8930       TObjectTableIterator::GetNextTypedObject((KernelTypes))
 0000:002C899C       TObjectTable::NewId((KernelTypes))
 0000:002C8A44       TObjectTable::NextGlobalUniqueId((void))
 0000:002C8A80       TObjectTable::Get((ulong))
 0000:002C8AC8       TObjectTable::Exists((ulong))
 0000:002C8B04       TObjectTable::Add((TKernelObject *,KernelTypes,ulong))
 0000:002C97E8       TRootView::SetPopup((TView *,uchar))
 0000:002C992C       TObjectIterator::Done((void))
 0000:002C99BC       TObjectIterator::Reset((void))
 0000:002C9B04       TObjectHeap::Uriah((void))
 0000:002CA498       TObjectHeap::UriahBinaryObjects((int))
 0000:002CA8E4       AddArraySlot__FRC6RefVarT1
 0000:002CA9FC       ClassOf(RefVar const &)
 0000:002CAB3C       SetClass__FRC6RefVarT1
 0000:002CAC68       FSetGlobal
 0000:002CACD4       CString(RefVar const &)
 0000:002CACD8       GetCString(RefVar const &)
 0000:002CADE0       CDouble(RefVar const &)
 0000:002CAE80       CoerceToInt(RefVar const &)
 0000:002CAEE0       CoerceToDouble(RefVar const &)
 0000:002CB094       InitObjects(void)
 0000:002CB24C       RefToUniChar(RefVar const &)
 0000:002CB46C       LockedBinaryPtr(RefVar const &)
 0000:002CB4B0       TOptionExtended::TOptionExtended((ulong))
 0000:002CB51C       IsFaultBlock(long)
 0000:002CB5CC       DirtyObject(long)
 0000:002CB5F0       UndirtyObject(long)
 0000:002CB990       TObjectHeap::AllocateBlock((long,ulong))
 0000:002CBEF8       TObjectHeap::AllocateObject((long,ulong))
 0000:002CC260       TObjectHeap::AllocateIndirectBinary((RefVar const &,long))
 0000:002CC3B4       TObjectHeap::AllocateFrameWithMap((RefVar const &))
 0000:002CC430       DataAreaTable
 0000:002CC470       AllocateMapWithTags__FRC6RefVarT1
 0000:002CC540       CollectFrameTags1__FP3MapPlT2
 0000:002CC5AC       TLibrarian::GetLibraryEntry((RefVar const &))
 0000:002CCE84       ObjectFlags(long)
 0000:002CD0CC       TObjectHeap::UnsafeSetArrayLength((RefVar const &,long))
 0000:002CD190       TObjectHeap::UnsafeSetBinaryLength((RefVar const &,long))
 0000:002CD288       BinaryData(long)
 0000:002CE1BC       FrameHasPath__FRC6RefVarT1
 0000:002CE698       DeepClone1__FRC6RefVarR14TPrecedentsVarT2
 0000:002CE7C8       DeepClone(RefVar const &)
 0000:002CE8AC       TotalClone1__FRC6RefVarR14TPrecedentsVarT2i
 0000:002CEA98       TotalClone(RefVar const &)
 0000:002CEB54       EnsureInternal(RefVar const &)
 0000:002CEC1C       SearchSortedMap__FP3MaplT2
 0000:002CF098       GetFrameMapTags(long,SortedMapTag *,uchar)
 0000:002CF624       BumpOval(OvalRec *,long)
 0000:002D00D4       NewPackage(CPipe *,RefVar const &,ulong *)
 0000:002D036C       FObjectPid
 0000:002D03F0       FObjectPkgRef
 0000:002D0468       FPidToPkgRef
 0000:002D0648       StorePackage(CPipe *,TStore *,TLOCallback *,ulong *)
 0000:002D0858       WrapPackage(ulong,TStore *)
 0000:002D0D00       FInstallPackage
 0000:002D0E1C       Get__13TUPageManagerSFRUlUli
 0000:002D0F68       IsPackage(RefVar const &)
 0000:002D101C       StoreMakePackageDirectory
 0000:002D10E0       FIsProtocolPartInUse
 0000:002D1164       GetPkgInfoFromVAddr(ulong)
 0000:002D17A8       FGetPkgInfoFromPssid
 0000:002D18C4       GetCardReinsertionInfo(TCardReinsertionInfo *)
 0000:002D1AB4       StorePackagesAvailable
 0000:002D1BBC       StorePackagesUnavailable
 0000:002D1D00       StorePackageAvailable
 0000:002D1D7C       TCompiler::Parser((void))
 0000:002D54D4       TCompiler::GetNumber((ushort))
 0000:002D598C       TCompiler::ParserStackOverflow((void))
 0000:002D5AA4       TCompiler::SyntaxError((char *))
 0000:002D5D30       dbprint(ushort)
 0000:002D5DA8       dbprint(char *)
 0000:002D5DDC       TCompiler::GetCharsUntil((ushort,int,long &))
 0000:002D6280       TCompiler::ReservedWordToken((char *))
 0000:002D63C4       TCompiler::yylex0((void))
 0000:002D6DAC       CrumpleRect(TBaseRegion,Rect *,long)
 0000:002D7124       DrawPaths(paths **,long,PixelMap **)
 0000:002D7204       FramePath(path *)
 0000:002D78C4       CopyPattern(PixelMap **)
 0000:002D795C       DisposePattern(PixelMap **)
 0000:002D79C8       DisposeFgPattern(void)
 0000:002D7DF4       HidePen(void)
 0000:002D7E6C       ShowPen(void)
 0000:002D7FC8       DESpermute__FPCUcUlT2PUl
 0000:002DEC64       PutPicData(char *,long)
 0000:002DEE08       PutPicRgn(Region **)
 0000:002DEE74       PutPicOpcode(long)
 0000:002DEEBC       PutPicWord(long)
 0000:002DEEE8       PutPicLong(long)
 0000:002DEF04       PutPicRect(long,Rect *)
 0000:002DF030       PutPicCurve(long,curve *)
 0000:002E0160       TextCleanup(PicPlay *,char *)
 0000:002E036C       GetPicDiscard(long)
 0000:002E03B8       GetPicData(char *,long)
 0000:002E04F4       GetPicUByte(void)
 0000:002E0518       GetPicPoint(Point *)
 0000:002E0D94       PicComment__FsT1PPc
 0000:002E0F1C       StdComment
 0000:002E1178       MapCoord__FlN41
 0000:002E1290       EqualPt__F5PointT1
 0000:002E137C       MapPt__FP5PointP4RectT2
 0000:002E1554       StdPoly
 0000:002E1614       MapPoly__FPP7PolygonP4RectT2
 0000:002E1790       DrawPoly(Polygon **,long,PixelMap **)
 0000:002E6DE4       MapFPoint__FP6FPointP4RectT2
 0000:002E825C       SafelyPrintString(ushort *)
 0000:002E8330       IsAggregate(RefVar const &)
 0000:002E8380       PrintObjectAux__FRC6RefVarlT2
 0000:002E9440       Pushpopper::flushbits((void))
 0000:002E95CC       Pushpopper::popString((uchar *,long))
 0000:002E9640       Pushpopper::popFewBits((long))
 0000:002E9694       pushbits__10PushpopperFlT1
 0000:002E9914       ZoomRect__FP4RectT1lUc
 0000:002E9BC4       FixStep__FlN21
 0000:002E9C0C       QDNewTempPtr(long)
 0000:002E9C88       QDDisposeTempPtr(char *)
 0000:002E9D0C       InvalidateQDTempBuf(void)
 0000:002E9FC0       SoupSetSignature(RefVar const &,long)
 0000:002EA23C       SoupQuery__FRC6RefVarT1
 0000:002EA2F0       InitGraf(void)
 0000:002EA380       InitQueries(void)
 0000:002EA68C       StdRect
 0000:002EA858       MapRect__FP4RectN21
 0000:002EA9AC       PutRect__FP4RectPP6RegionPlT3
 0000:002EAEC0       PushVerb(uchar,long *,PixelMap ***)
 0000:002EAF3C       DrawRect(Rect *,long,PixelMap **)
 0000:002EB030       UnionRect__FP4RectN21
 0000:002EB1B8       NewRgn(void)
 0000:002EB368       RectInRgn(Rect *,Region **)
 0000:002EB47C       EqualRgn__FPP6RegionT1
 0000:002EB5E4       PtInRgn(Point,Region **)
 0000:002EB6B4       StdRgn
 0000:002EB760       MapRgn__FPP6RegionP4RectT2
 0000:002EB8A4       TrimRect(Region **,Rect *)
 0000:002EB950       DrawRgn(Region **,long,PixelMap **)
 0000:002EBF78       FrRgn(Region **,long,PixelMap **)
 0000:002EC1BC       PutRgn__FPP6RegionPPcPlT3
 0000:002EC2DC       RgnOp__FPP10TrueRegionT1PPclN24Uc
 0000:002EC798       PackRgn(char **,long,Region **)
 0000:002ECAB8       QDQuickSort__FP5PointT1
 0000:002ECC54       SetRectRgn__FPP6RegionlN32
 0000:002ED5CC       LSeekMask__FlT1PUlT1P8RgnStateN25
 0000:002EE618       CallRRect__FUcP4RectlT3
 0000:002EE9D4       GetTagsIndexDesc(RefVar const &)
 0000:002EEAE0       ResolveEntryAliasInStores__FRC6RefVarT1
 0000:002EF124       UpdateTagsIndex__FRC6RefVarN31Ul
 0000:002EFB80       CommonSoupAddEntry__FRC6RefVarT1UcT3
 0000:002EFE5C       TFlash::GetTotalSize((void))
 0000:002EFE74       TFlash::GetEraseRegionSize((void))
 0000:002F01D8       IndexEntries__FRC6RefVarT1
 0000:002F04E0       TUAsyncMessage::Abort((void))
 0000:002F0D8C       PlainSoupAddIndex
 0000:002F100C       AddNewSoupIndexes__FRC6RefVarN21
 0000:002F111C       PlainSoupRemoveIndex
 0000:002F1464       CountTags(RefVar const &)
 0000:002F1588       PlainSoupAddTags
 0000:002F17A0       QueryEntriesWithTags__FRC6RefVarT1
 0000:002F183C       PlainSoupRemoveTags
 0000:002F1C48       PlainSoupModifyTag
 0000:002F2090       RichStringToSKey(RefVar const &,SKey *)
 0000:002F2CA4       KeyToSKey__FRC6RefVarT1P4SKeyPsPUc
 0000:002F3290       RemoveEntryStopFn__FP4SKeyT1Pv
 0000:002F35A0       PlainSoupRemoveFromStore
 0000:002F39F0       PlainSoupDirty(RefVar const &)
 0000:002F3B9C       GetSizeStopFn__FP4SKeyT1Pv
 0000:002F3D2C       UpdateIndexes__FRC6RefVarN21UlPUc
 0000:002F4230       SKeyToKey(SKey const &,RefVar const &,short *)
 0000:002F4700       CopyIndexStopFn__FP4SKeyT1Pv
 0000:002F4834       ComparePSSIDMapping__FPCvT1
 0000:002F4B18       CopyEntriesStopFn__FP4SKeyT1Pv
 0000:002F4C24       PlainSoupCopyEntriesWithCallBack
 0000:002F52D4       GetEntryKey__FRC6RefVarT1
 0000:002F55E4       New__10PFrameSinkSFPc
 0000:002F5DC4       CompareAliasAndEntry__FRC6RefVarT1
 0000:002F5F9C       StoreGetSoupNames
 0000:002F6854       KillStoreObject(RefVar const &)
 0000:002F6A2C       RemoveTStore(TStore *)
 0000:002F6C30       StoreCreateSoup
 0000:002F6E00       StoreGetKind
 0000:002F708C       CheckWriteProtect(TStore *)
 0000:002F74D4       StoreGetSoup
 0000:002F793C       StoreGetSoupId__FRC6RefVarT1
 0000:002F7F64       StoreTotalSize
 0000:002F7FD0       StoreUsedSize
 0000:002F8004       StoreIsReadOnly
 0000:002F80B0       StoreOverhead
 0000:002F8330       StoreDirty(RefVar const &)
 0000:002F86D8       StoreGetPasswordKey
 0000:002F884C       StoreHasPassword
 0000:002F886C       HandleSCPEvent(TSCPEvent *)
 0000:002F8BC4       StoreSaveSortTable(RefVar const &,long)
 0000:002F8E6C       StoreRemoveSortTable(RefVar const &,long)
 0000:002F90B8       TNBPReplyBuffer::Insert((uchar,uchar *,TTupleEquiv &))
 0000:002F9274       GetStoreVersion(TStore *,long *)
 0000:002F937C       Create__15TStoreHashTableSFP6TStore
 0000:002F93C4       TStoreHashTable::TStoreHashTable((TStore *,ulong))
 0000:002F9464       TStoreHashTable::Insert((ulong,char *,long))
 0000:002F97C0       TStoreHashTable::TotalSize((void))
 0000:002F981C       TStoreHashTableIterator::TStoreHashTableIterator((TStoreHashTable *))
 0000:002F99B0       SetStoreVersion(RefVar const &,long)
 0000:002F9C14       TStoreWrapper::Dirty((void))
 0000:002F9C64       AskForFlush(uchar)
 0000:002F9C74       AddMap__13TStoreWrapperFP12SortedMapTagUcPlT3
 0000:002F9E08       TStoreWrapper::FrameToMapReference((RefVar const &,uchar,long *,long **))
 0000:002F9F80       TStoreWrapper::ReferenceToMap((long))
 0000:002FA190       TStoreWrapper::StartCopyMaps_Symbols((void))
 0000:002FA218       GetRandomSignature(void)
 0000:002FA2E4       TStoreWrapper::CopyMap((long,TStoreWrapper *,long *))
 0000:002FA514       TStoreWrapper::SymbolToReference((RefVar const &))
 0000:002FA564       TStoreWrapper::ReferenceToSymbol((long))
 0000:002FA66C       GetStoreSizes__13TStoreWrapperFPlT1
 0000:002FA69C       TStoreWrapper::LockStore((void))
 0000:002FA730       TStoreWrapper::Abort((void))
 0000:002FA7B4       MakeStoreObject(TStore *)
 0000:002FAAA0       gStores
 0000:002FAD20       TCachedReadStore::TCachedReadStore((TStore *,ulong,long))
 0000:002FAF50       FReadStoreObject
 0000:002FB058       FWriteEntireStoreObject
 0000:002FB0F4       FWriteStoreObject
 0000:002FB1A4       FNewStoreObject
 0000:002FB1FC       FDeleteStoreObject
 0000:002FB248       TXArray::Lock((uchar))
 0000:002FB2AC       RegisterTStore(TStore *)
 0000:002FB434       FGetStoreObjectSize
 0000:002FB48C       FStoreAbort
 0000:002FB4B0       StoreFromWrapper(RefVar const &)
 0000:002FB52C       FGetStoreCardSlot
 0000:002FB560       FGetStoreCardType
 0000:002FB5A8       FGetCardSlotStores
 0000:002FB9D4       TBucketArray::TBucketArray((long))
 0000:002FBA20       TPrecedentsForWriting::TPrecedentsForWriting((void))
 0000:002FBACC       TPrecedentsForWriting::Append((RefVar const &))
 0000:002FBB18       TPrecedentsForWriting::Find((RefVar const &))
 0000:002FBB5C       TPrecedentsForWriting::Reset((void))
 0000:002FBBD4       TPrecedentsForWriting::Search((RefVar const &))
 0000:002FBCBC       TPrecedentsForWriting::GenerateLinks((long))
 0000:002FBF20       TPrecedentsForWriting::RebuildTable((void))
 0000:002FBF98       TPrecedentsForWriting::MarkAllRefs((void))
 0000:002FBFE4       TPrecedentsForWriting::UpdateAllRefs((void))
 0000:002FC040       TPrecedentsForReading::TPrecedentsForReading((void))
 0000:002FC0D4       TPrecedentsForReading::Append((RefVar const &))
 0000:002FC114       TPrecedentsForReading::Replace((long,RefVar const &))
 0000:002FC134       TBucketArray::ElementAt((long))
 0000:002FC198       GCMark__21TPrecedentsForReadingSFPv
 0000:002FC19C       TPrecedentsForReading::MarkAllRefs((void))
 0000:002FC1E8       TPrecedentsForReading::UpdateAllRefs((void))
 0000:002FC238       PackSmallRect(long,long *)
 0000:002FC44C       TObjectWriter::TObjectWriter((RefVar const &,CPipe &,int))
 0000:002FC6CC       LongFromPipe(CPipe &)
 0000:002FC710       TObjectWriter::Size((void))
 0000:002FD6E8       TObjectReader::TObjectReader((CPipe &,RefVar const &))
 0000:002FD7B8       TObjectReader::SetPrecedentsForReading((void))
 0000:002FD824       TObjectReader::Read((void))
 0000:002FD87C       TObjectReader::ReadPrecedent((void))
 0000:002FE034       TPrecedentsVar::Append((RefVar const &))
 0000:002FE08C       TPrecedentsVar::Find((RefVar const &))
 0000:002FE120       InternExistingSymbol(RefVar const &)
 0000:002FE35C       Intern(char *)
 0000:002FE56C       GCTWA(void)
 0000:002FE604       IsSymbol(long)
 0000:002FE794       SymbolHashFunction(char *)
 0000:002FE900       FindSymbol__FPllT2PcUlRl
 0000:002FE9DC       TTaskQueue::FindAndRemove((ulong,KernelObjectState))
 0000:002FEC60       DoCharToPoint__FlN21
 0000:002FF05C       DrawTextOnce(void *,long,StyleRecord **,short *,FPoint,TextOptions *,TextBoundsInfo *)
 0000:002FF0A8       Gsm_Short_Term_Analysis_Filter__FP9gsm_statePsT2
 0000:002FF140       DoRichString(TRichString &,ulong,long,StyleRecord *,FPoint,TextOptions *,TextBoundsInfo *,uchar)
 0000:002FF3F8       EqualStyle__FP11StyleRecordT1
 0000:002FF480       DoTextOnce(void *,long,StyleRecord **,short *,FPoint,TextOptions *,TextBoundsInfo *,uchar)
 0000:002FF578       CallDrawText__FlN21
 0000:002FFFF4       CalcTextAdvance(long,FPoint *,FPoint *)
 0000:0030010C       DispatchCalcBounds(long,void *)
 0000:003001D8       CalcTextBounds(long,void *,void *,void *)
 0000:0030040C       InvalCachedTextInfo(long)
 0000:00300E04       UpdateLayoutState__FlN31
 0000:00301044       ScanNextChunk(long *,void **,TextWalker *,long **)
 0000:00301234       ReleaseTextWalker(TextWalker *)
 0000:003013FC       NewText(void *,long,StyleRecord **,short *,FPoint,TextOptions *)
 0000:003026AC       TTime::Set((ulong,TimeUnits))
 0000:0030273C       TTime::ConvertTo((TimeUnits))
 0000:00302990       TraceSend__12TInterpreterFRC6RefVarT1lT3
 0000:00302AC4       TInterpreter::TraceCall((RefVar const &,long))
 0000:00302C88       Tracing(long,_RPR_P *)
 0000:00302D40       TInterpreter::TraceSetOptions((void))
 0000:00303048       TraceGet__12TInterpreterFRC6RefVarN21
 0000:00303220       TraceSet__12TInterpreterFRC6RefVarN31
 0000:00303398       TInterpreter::TraceReturn((uchar))
 0000:0030344C       gREPout
 0000:00303468       TraceArgs__12TInterpreterFlN21
 0000:003034F8       TraceMethod__12TInterpreterFRC6RefVarT1PclT4
 0000:00303F70       SlowCopyEntries__FRC6RefVarN21Ul
 0000:00304494       StoreConvertSoupSortTables
 0000:0030478C       Make__15TRecognizerListSFv
 0000:00304B10       TXRulerTabsBar::Click((TXPointingDevice *,long,TXAttrValues *,long *))
 0000:00304C54       RemoveFromUnionSoup__FRC6RefVarT1
 0000:0030BD20       annuity
 0000:0030BFD0       FATn
 0000:0030C05C       atan
 0000:0030C234       atanh
 0000:0030C304       asinh
 0000:0030C454       acosh
 0000:0030C5B4       asin
 0000:0030C690       acos
 0000:0030C744       atan2
 0000:0030C918       a__0
 0000:00313B4C       ErrFunApprox
 0000:00317CC0       NANsane
 0000:00317D28       nextafterd
 0000:00318544       _fprintf
 0000:00318570       _no_fp_display
 0000:00318770       __vfprintf
 0000:003199A4       printf
 0000:003199D4       _fp_display
 0000:00319AD8       stdPatterns
 0000:0031BFF0       _initio
 0000:0031C7B4       _seterr
 0000:0031C7D0       fgets
 0000:0031CB6C       fseek
 0000:0031CD1C       ftell
 0000:0031D1D8       freopen
 0000:0031F828       SaveCPUStateAndStopSystem
 0000:0031F8F4       InitTheMMUTables
 0000:0031FA50       FlushTheMMU
 0000:0031FA58       SetFIQStack
 0000:0031FAB0       SetIRQStack
 0000:0031FAC8       SetUndefStack
 0000:0031FAEC       SetAbortStack
 0000:0031FB04       SetUserStack
 0000:0031FB18       AddNewSecPNJT__FUlN214PermUc
 0000:0031FB54       LoadFromPhysAddress
 0000:0031FB6C       StoreToPhysAddress
 0000:0031FB84       gEnum80Empty
 0000:0031FBB4       ZeroPhysSubPage
 0000:0031FBF0       PhysSubPageCopy
 0000:0031FC84       DiagBootStub
 0000:0031FE5C       _stfp
 0000:00320DE0       TCommToolProtocol::Delete((void))
 0000:00320DFC       TStore::LockReadOnly((void))
 0000:00320E08       TCommToolProtocol::TaskDestructor((void))
 0000:00320F10       TStoreCompander::DoTransactionAgainst((long,ulong))
 0000:00321110       PConnectionEnd::Delete((void))
 0000:0032112C       TPlatformDriver::Init((void))
 0000:00321144       PConnectionEnd::HandleInternalEvent((void))
 0000:003211B0       TPlatformDriver::PowerOnSubsystem((ulong))
 0000:003211D4       ProcessPutBytesOptionStart__14PConnectionEndFP7TOptionUlT2
 0000:00321204       ProcessGetBytesOptionStart__14PConnectionEndFP7TOptionUlT2
 0000:0032121C       HandleRequest__14PConnectionEndFPUcUlR10TUMsgTokenT2
 0000:00321228       HandleReply__14PConnectionEndFUlT1
 0000:00321240       TPlatformDriver::PauseSystem((void))
 0000:0032124C       PConnectionEnd::GetCommEvent((void))
 0000:00321258       PSoundDriver::OutputVolume((void))
 0000:00321300       TFlashDriver::Init((TMemoryAllocator &))
 0000:00321538       PMuxTool::Delete((void))
 0000:00321554       TFlashDriver::InitializeDriverData((TFlashRange &,TMemoryAllocator &))
 0000:0032156C       PMuxTool::NewConnectionEnd((void))
 0000:00321578       TPlatformDriver::PowerOffSubsystem((ulong))
 0000:00321584       TPlatformDriver::PowerOffAllSubsystems((void))
 0000:00321590       PMuxTool::HandleRequest((uchar *,TUMsgToken &,ulong))
 0000:0032159C       HandleReply__8PMuxToolFUlT1
 0000:003215B4       PMuxTool::HandleInternalEvent((void))
 0000:00321B50       ClassInfo__19PHammerInTranslatorSFv
 0000:00321BE0       ClassInfo__20PHammerOutTranslatorSFv
 0000:00321C90       ClassInfo__17PNullInTranslatorSFv
 0000:00321D20       ClassInfo__18PNullOutTranslatorSFv
 0000:00321DCC       ClassInfo__18PStdioInTranslatorSFv
 0000:00322394       TSerialChip::InstallChipHandler((void *,SCCChannelInts *))
 0000:003223A0       TPlatformDriver::EnableSysPowerInterrupt((void))
 0000:003223AC       TSerialChip::PutByte((uchar))
 0000:003223C4       TSerialChip::GetByte((void))
 0000:003223D0       TSerialChip::TxBufEmpty((void))
 0000:003223DC       TSerialChip::RxBufFull((void))
 0000:003223E8       TSerialChip::GetRxErrorStatus((void))
 0000:003223F4       TSerialChip::GetSerialStatus((void))
 0000:00322400       TSerialChip::ResetSerialStatus((void))
 0000:0032240C       TSerialChip::SetSerialOutputs((ulong))
 0000:00322418       TSerialChip::ClearSerialOutputs((ulong))
 0000:00322424       TSerialChip::GetSerialOutputs((void))
 0000:00322430       TSerialChip::PowerOff((void))
 0000:0032243C       TSerialChip::PowerOn((void))
 0000:0032246C       TSerialChip::SetBreak((uchar))
 0000:00322478       TSerialChip::SetSpeed((ulong))
 0000:00322484       TSerialChip::SetIOParms((TCMOSerialIOParms *))
 0000:00322490       TSerialChip::Reconfigure((void))
 0000:003224A8       TPlatformDriver::PowerOffSystem((void))
 0000:003224B4       PSoundDriver::StartOutput((void))
 0000:003224C0       TCallbackCompressor::Flush((void))
 0000:003224CC       TSerialChip::ProcessOption((TOption *))
 0000:003224D8       TSerialChip::SetSerialMode((ulong))
 0000:003224E4       TPlatformDriver::PowerOnSystem((void))
 0000:003224F0       TSerialChip::SetTxDTransceiverEnable((uchar))
 0000:003224FC       TSerialChip::GetByteAndStatus((uchar *))
 0000:00322508       TSerialChip::SetIntSourceEnable((ulong,uchar))
 0000:00322514       TSerialChip::AllSent((void))
 0000:0032252C       TSerialChip::InitTxDMA((TCircleBuf *,void (*)(void *)))
 0000:00322538       TSerialChip::InitRxDMA((TCircleBuf *,ulong,void (*)(void *,ulong)))
 0000:00322544       TSerialChip::TxDMAControl((uchar))
 0000:00322550       TSerialChip::RxDMAControl((uchar))
 0000:0032255C       TSerialChip::SetSDLCAddress((uchar))
 0000:00322568       TSerialChip::ReEnableReceiver((uchar))
 0000:00322574       TSerialChip::LinkIsFree((uchar))
 0000:00322580       SendControlPacket__11TSerialChipFUcN21
 0000:003226BC       TPlatformDriver::GetPCMCIAPowerSpec((ulong,ulong *))
 0000:003226C8       TCardHandler::ResumeServices((TCardSocket *,TCardPCMCIA *,ulong))
 0000:003226E0       PSerialChipRegistry::GetChipPtr((ulong))
 0000:003226EC       PSoundDriver::StartInput((void))
 0000:00322704       PSoundDriver::OutputIsEnabled((void))
 0000:00322710       PSerialChipRegistry::FindByLocation((ulong))
 0000:0032271C       ClaimSerialChip__19PSerialChipRegistryFUlUcT1
 0000:00322728       PSoundDriver::InputIsEnabled((void))
 0000:00322818       TSerialDebugLink::EnbIntOnNextRxC((void))
 0000:00322834       Install__16TSerialDebugLinkFUlT1PvPFPv_l
 0000:00322840       GetGeoPortDebugLinkClassInfo(void)
 0000:00322858       TSerialDebugLink::ReadDebugFrame((uchar *,long,long *,ulong))
 0000:00322A68       PLink::Delete((void))
 0000:00322A84       TPlatformDriver::TranslatePowerEvent((ulong))
 0000:00322A90       PLink::Activate((void))
 0000:00322A9C       TPlatformDriver::PowerOnDeviceCheck((uchar))
 0000:00322AA8       PLink::AcquireNodeAddress((uchar &,ulong &))
 0000:00322ACC       GrayShrink__18TPixelMapAntialiasFP8PixelMapT1P4RectT3PP6RegionN25
 0000:00322AD8       PSoundDriver::OutputVolume((long))
 0000:00322B20       ClassInfo__14PLocalTalkLinkSFv
 0000:00322D20       ClassInfo__15PAppleTalkStackSFv
 0000:00323328       New__14PBatteryDriverSFPc
 0000:00323370       PBatteryDriver::Init((void))
 0000:00323540       Satisfy__18TClassInfoRegistryCFPCcN21
 0000:00323558       Satisfy__18TClassInfoRegistryCFPCcT1ClT3
 0000:00323564       TClassInfoRegistry::UpdateInstanceCount((TClassInfo const *,long))
 0000:003235DC       TSerialChip::CardRemoved((void))
 0000:003237D4       TStoreDecompressor::Delete((void))
 0000:003237F0       TStoreDecompressor::Init((TStore *,ulong))
 0000:003237FC       Read__18TStoreDecompressorFUlPclT1
 0000:0032384C       TStoreCompander::Delete((void))
 0000:00323868       Init__15TStoreCompanderFP6TStoreUlT2UcT4
 0000:00323880       Read__15TStoreCompanderFUlPclT1
 0000:0032388C       Write__15TStoreCompanderFUlPclT1
 0000:003238A4       TStoreCompander::IsReadOnly((void))
 0000:00323970       TLrgObjStore::Backup((CPipe *,TStore *,ulong,uchar,TLOCallback *))
 0000:00324BB8       TStore::NewWithinTransaction((long,ulong *))
 0000:00324BC4       TStore::StartTransactionAgainst((ulong))
 0000:00324BD0       TStore::SeparatelyAbort((ulong))
 0000:00324BDC       GetReceivedMessageType(void)
 0000:00324BE8       TStore::InSeparateTransaction((ulong))
 0000:00324BF4       PSoundDriver::InputIntHandler((void))
 0000:00324C0C       TStore::InTransaction((void))
 0000:00324C18       TStore::NewObject((char *,long,ulong *))
 0000:00324C24       TStore::ReplaceObject((ulong,char *,long))
 0000:00324C30       CalcXIPObjectSize__6TStoreFlT1Pl
 0000:00324C3C       TStore::NewXIPObject((long,ulong *))
 0000:00324C48       GetXIPObjectInfo__6TStoreFUlPUlN22
 0000:00324DD4       TStoreMonitor::NewWithinTransaction((long,ulong *))
 0000:00324DE0       TStoreMonitor::StartTransactionAgainst((ulong))
 0000:00324DEC       TStoreMonitor::SeparatelyAbort((ulong))
 0000:00324DF8       TStoreMonitor::AddToCurrentTransaction((ulong))
 0000:00324E04       TStoreMonitor::LockReadOnly((void))
 0000:00324E1C       TStoreMonitor::NewObject((char *,long,ulong *))
 0000:00324E28       TStoreMonitor::ReplaceObject((ulong,char *,long))
 0000:00324E34       TStoreMonitor::NewXIPObject((long,ulong *))
 0000:00325A04       GetDeviceInfo__12TCardHandlerFUlPUlT2PPvN22
 0000:00325A2C       Init__15TEventCollectorFUiPcT2iT4
 0000:00325A44       PInTranslator::Idle((void))
 0000:00325A8C       ClassInfo__11TGrayShrinkSFv
 0000:00325DC4       PSoundDriver::Delete((void))
 0000:00325DEC       POutTranslator::Idle((void))
 0000:00325DF8       Initialize__6TFlashFP11TCardSocketP11TCardPCMCIAUlT3
 0000:00325E10       ScheduleOutputBuffer__12PSoundDriverFUlT1
 0000:00325E28       PSoundDriver::PowerOutputOn((long))
 0000:00325E34       PSoundDriver::PowerOutputOff((void))
 0000:00325E4C       TFlash::AcknowledgeReset((void))
 0000:00325E58       TSerialChip::WaitForAllSent((void))
 0000:00325E70       PSoundDriver::StopOutput((void))
 0000:00325E7C       TFlash::ResumeService((TCardSocket *,TCardPCMCIA *,ulong))
 0000:00325E88       TCardHandler::RecognizeCard((TCardSocket *,TCardPCMCIA *))
 0000:00325EA0       PSoundDriver::OutputIsRunning((void))
 0000:00325ED0       PSoundDriver::OutputIntHandler((void))
 0000:00326048       TTestCase::Init((short,char **,TTestReporter *))
 0000:00326250       TCompressor::Delete((void))
 0000:0032626C       TCompressor::Init((void *))
 0000:00326278       Compress__11TCompressorFPUlPvUlT2T3
 0000:00326284       TCompressor::EstimatedCompressedSize((void *,ulong))
 0000:003262D8       TCallbackCompressor::Delete((void))
 0000:003262F4       TCallbackCompressor::Init((void *))
 0000:00326300       TSerialChip::ResetTxBEmpty((void))
 0000:0032630C       TCallbackCompressor::WriteChunk((void *,long))
 0000:00326318       TCallbackCompressor::Reset((void))
 0000:00326368       TDecompressor::Delete((void))
 0000:00326384       TDecompressor::Init((void *))
 0000:00326390       Decompress__13TDecompressorFPUlPvUlT2T3
 0000:003263E8       TCallbackDecompressor::Delete((void))
 0000:00326404       TCallbackDecompressor::Init((void *))
 0000:00326410       PSoundDriver::InputVolume((long))
 0000:0032641C       TCallbackDecompressor::ReadChunk((void *,long *,uchar *))
 0000:00326AD0       PInTranslator::Init((void *))
 0000:00326ADC       PSoundDriver::InputVolume((void))
 0000:00326AE8       PInTranslator::FrameAvailable((void))
 0000:00326AF4       PInTranslator::ProduceFrame((int))
 0000:00326B6C       TCallbackDecompressor::Reset((void))
 0000:00326B78       ConsumeFrame__14POutTranslatorFRC6RefVariT2
 0000:00326B84       POutTranslator::Flush((void))
 0000:00326B90       POutTranslator::Prompt((int))
 0000:00326B9C       POutTranslator::Print((char const *,...))
 0000:00326BB4       POutTranslator::EnterBreakLoop((int))
 0000:00326BC0       POutTranslator::ExitBreakLoop((void))
 0000:00326BD8       POutTranslator::ExceptionNotify((Exception *))
 0000:003274FC       lt64
 0000:0032753C       gt64
 0000:0032DBEC       DynArrayLeaf
 0000:0032E180       _EnterAtomicFast
 0000:0032E2CC       _EnterFIQAtomicFast
 0000:0032E7F4       IsSuperMode
 0000:0032E828       ClearFIQMask
 0000:003421A8       RemovePTable(ulong)
 0000:003423C0       PurgePageFromTLB
 0000:0034248C       _FlushMMU
 0000:00342CC0       _GetPortSWI
 0000:00342D14       _GenericWithReturnSWI
 0000:00342D58       _Swap
 0000:00342D88       PortSendSWI
 0000:00342D9C       PortReceiveSWI
 0000:00342E94       _MonitorDispatchSWI
 0000:00342F10       _MonitorFlushSWI
 0000:00342F18       SMemSetBufferSWI
 0000:00342F20       SMemGetSizeSWI
 0000:00342F50       _SMemCopyToSharedSWI
 0000:00342F68       _SMemCopyFromSharedSWI
 0000:00342F8C       SMemMsgSetTimerParmsSWI
 0000:00342FCC       SMemMsgCheckForDoneSWI
 0000:00343014       SMemMsgMsgDoneSWI
 0000:00344CEC       gROMSoupData
 0000:005D5360       gInterpreter
 0000:005D5860       RSrcinkortext
